ARM GAS  /tmp/cc8sHRun.s 			page 1


   1              		.cpu cortex-m7
   2              		.arch armv7e-m
   3              		.fpu fpv5-d16
   4              		.eabi_attribute 28, 1
   5              		.eabi_attribute 20, 1
   6              		.eabi_attribute 21, 1
   7              		.eabi_attribute 23, 3
   8              		.eabi_attribute 24, 1
   9              		.eabi_attribute 25, 1
  10              		.eabi_attribute 26, 1
  11              		.eabi_attribute 30, 1
  12              		.eabi_attribute 34, 1
  13              		.eabi_attribute 18, 4
  14              		.file	"pbuf.c"
  15              		.text
  16              	.Ltext0:
  17              		.cfi_sections	.debug_frame
  18              		.file 1 "../../Middlewares/Third_Party/LwIP/src/core/pbuf.c"
  19              		.section	.text.pbuf_pool_is_empty,"ax",%progbits
  20              		.align	1
  21              		.syntax unified
  22              		.thumb
  23              		.thumb_func
  25              	pbuf_pool_is_empty:
  26              	.LFB171:
   1:../../Middlewares/Third_Party/LwIP/src/core/pbuf.c **** /**
   2:../../Middlewares/Third_Party/LwIP/src/core/pbuf.c ****  * @file
   3:../../Middlewares/Third_Party/LwIP/src/core/pbuf.c ****  * Packet buffer management
   4:../../Middlewares/Third_Party/LwIP/src/core/pbuf.c ****  */
   5:../../Middlewares/Third_Party/LwIP/src/core/pbuf.c **** 
   6:../../Middlewares/Third_Party/LwIP/src/core/pbuf.c **** /**
   7:../../Middlewares/Third_Party/LwIP/src/core/pbuf.c ****  * @defgroup pbuf Packet buffers (PBUF)
   8:../../Middlewares/Third_Party/LwIP/src/core/pbuf.c ****  * @ingroup infrastructure
   9:../../Middlewares/Third_Party/LwIP/src/core/pbuf.c ****  *
  10:../../Middlewares/Third_Party/LwIP/src/core/pbuf.c ****  * Packets are built from the pbuf data structure. It supports dynamic
  11:../../Middlewares/Third_Party/LwIP/src/core/pbuf.c ****  * memory allocation for packet contents or can reference externally
  12:../../Middlewares/Third_Party/LwIP/src/core/pbuf.c ****  * managed packet contents both in RAM and ROM. Quick allocation for
  13:../../Middlewares/Third_Party/LwIP/src/core/pbuf.c ****  * incoming packets is provided through pools with fixed sized pbufs.
  14:../../Middlewares/Third_Party/LwIP/src/core/pbuf.c ****  *
  15:../../Middlewares/Third_Party/LwIP/src/core/pbuf.c ****  * A packet may span over multiple pbufs, chained as a singly linked
  16:../../Middlewares/Third_Party/LwIP/src/core/pbuf.c ****  * list. This is called a "pbuf chain".
  17:../../Middlewares/Third_Party/LwIP/src/core/pbuf.c ****  *
  18:../../Middlewares/Third_Party/LwIP/src/core/pbuf.c ****  * Multiple packets may be queued, also using this singly linked list.
  19:../../Middlewares/Third_Party/LwIP/src/core/pbuf.c ****  * This is called a "packet queue".
  20:../../Middlewares/Third_Party/LwIP/src/core/pbuf.c ****  *
  21:../../Middlewares/Third_Party/LwIP/src/core/pbuf.c ****  * So, a packet queue consists of one or more pbuf chains, each of
  22:../../Middlewares/Third_Party/LwIP/src/core/pbuf.c ****  * which consist of one or more pbufs. CURRENTLY, PACKET QUEUES ARE
  23:../../Middlewares/Third_Party/LwIP/src/core/pbuf.c ****  * NOT SUPPORTED!!! Use helper structs to queue multiple packets.
  24:../../Middlewares/Third_Party/LwIP/src/core/pbuf.c ****  *
  25:../../Middlewares/Third_Party/LwIP/src/core/pbuf.c ****  * The differences between a pbuf chain and a packet queue are very
  26:../../Middlewares/Third_Party/LwIP/src/core/pbuf.c ****  * precise but subtle.
  27:../../Middlewares/Third_Party/LwIP/src/core/pbuf.c ****  *
  28:../../Middlewares/Third_Party/LwIP/src/core/pbuf.c ****  * The last pbuf of a packet has a ->tot_len field that equals the
  29:../../Middlewares/Third_Party/LwIP/src/core/pbuf.c ****  * ->len field. It can be found by traversing the list. If the last
  30:../../Middlewares/Third_Party/LwIP/src/core/pbuf.c ****  * pbuf of a packet has a ->next field other than NULL, more packets
  31:../../Middlewares/Third_Party/LwIP/src/core/pbuf.c ****  * are on the queue.
  32:../../Middlewares/Third_Party/LwIP/src/core/pbuf.c ****  *
ARM GAS  /tmp/cc8sHRun.s 			page 2


  33:../../Middlewares/Third_Party/LwIP/src/core/pbuf.c ****  * Therefore, looping through a pbuf of a single packet, has an
  34:../../Middlewares/Third_Party/LwIP/src/core/pbuf.c ****  * loop end condition (tot_len == p->len), NOT (next == NULL).
  35:../../Middlewares/Third_Party/LwIP/src/core/pbuf.c ****  *
  36:../../Middlewares/Third_Party/LwIP/src/core/pbuf.c ****  * Example of custom pbuf usage: @ref zerocopyrx
  37:../../Middlewares/Third_Party/LwIP/src/core/pbuf.c ****  */
  38:../../Middlewares/Third_Party/LwIP/src/core/pbuf.c **** 
  39:../../Middlewares/Third_Party/LwIP/src/core/pbuf.c **** /*
  40:../../Middlewares/Third_Party/LwIP/src/core/pbuf.c ****  * Copyright (c) 2001-2004 Swedish Institute of Computer Science.
  41:../../Middlewares/Third_Party/LwIP/src/core/pbuf.c ****  * All rights reserved.
  42:../../Middlewares/Third_Party/LwIP/src/core/pbuf.c ****  *
  43:../../Middlewares/Third_Party/LwIP/src/core/pbuf.c ****  * Redistribution and use in source and binary forms, with or without modification,
  44:../../Middlewares/Third_Party/LwIP/src/core/pbuf.c ****  * are permitted provided that the following conditions are met:
  45:../../Middlewares/Third_Party/LwIP/src/core/pbuf.c ****  *
  46:../../Middlewares/Third_Party/LwIP/src/core/pbuf.c ****  * 1. Redistributions of source code must retain the above copyright notice,
  47:../../Middlewares/Third_Party/LwIP/src/core/pbuf.c ****  *    this list of conditions and the following disclaimer.
  48:../../Middlewares/Third_Party/LwIP/src/core/pbuf.c ****  * 2. Redistributions in binary form must reproduce the above copyright notice,
  49:../../Middlewares/Third_Party/LwIP/src/core/pbuf.c ****  *    this list of conditions and the following disclaimer in the documentation
  50:../../Middlewares/Third_Party/LwIP/src/core/pbuf.c ****  *    and/or other materials provided with the distribution.
  51:../../Middlewares/Third_Party/LwIP/src/core/pbuf.c ****  * 3. The name of the author may not be used to endorse or promote products
  52:../../Middlewares/Third_Party/LwIP/src/core/pbuf.c ****  *    derived from this software without specific prior written permission.
  53:../../Middlewares/Third_Party/LwIP/src/core/pbuf.c ****  *
  54:../../Middlewares/Third_Party/LwIP/src/core/pbuf.c ****  * THIS SOFTWARE IS PROVIDED BY THE AUTHOR ``AS IS'' AND ANY EXPRESS OR IMPLIED
  55:../../Middlewares/Third_Party/LwIP/src/core/pbuf.c ****  * WARRANTIES, INCLUDING, BUT NOT LIMITED TO, THE IMPLIED WARRANTIES OF
  56:../../Middlewares/Third_Party/LwIP/src/core/pbuf.c ****  * MERCHANTABILITY AND FITNESS FOR A PARTICULAR PURPOSE ARE DISCLAIMED. IN NO EVENT
  57:../../Middlewares/Third_Party/LwIP/src/core/pbuf.c ****  * SHALL THE AUTHOR BE LIABLE FOR ANY DIRECT, INDIRECT, INCIDENTAL, SPECIAL,
  58:../../Middlewares/Third_Party/LwIP/src/core/pbuf.c ****  * EXEMPLARY, OR CONSEQUENTIAL DAMAGES (INCLUDING, BUT NOT LIMITED TO, PROCUREMENT
  59:../../Middlewares/Third_Party/LwIP/src/core/pbuf.c ****  * OF SUBSTITUTE GOODS OR SERVICES; LOSS OF USE, DATA, OR PROFITS; OR BUSINESS
  60:../../Middlewares/Third_Party/LwIP/src/core/pbuf.c ****  * INTERRUPTION) HOWEVER CAUSED AND ON ANY THEORY OF LIABILITY, WHETHER IN
  61:../../Middlewares/Third_Party/LwIP/src/core/pbuf.c ****  * CONTRACT, STRICT LIABILITY, OR TORT (INCLUDING NEGLIGENCE OR OTHERWISE) ARISING
  62:../../Middlewares/Third_Party/LwIP/src/core/pbuf.c ****  * IN ANY WAY OUT OF THE USE OF THIS SOFTWARE, EVEN IF ADVISED OF THE POSSIBILITY
  63:../../Middlewares/Third_Party/LwIP/src/core/pbuf.c ****  * OF SUCH DAMAGE.
  64:../../Middlewares/Third_Party/LwIP/src/core/pbuf.c ****  *
  65:../../Middlewares/Third_Party/LwIP/src/core/pbuf.c ****  * This file is part of the lwIP TCP/IP stack.
  66:../../Middlewares/Third_Party/LwIP/src/core/pbuf.c ****  *
  67:../../Middlewares/Third_Party/LwIP/src/core/pbuf.c ****  * Author: Adam Dunkels <adam@sics.se>
  68:../../Middlewares/Third_Party/LwIP/src/core/pbuf.c ****  *
  69:../../Middlewares/Third_Party/LwIP/src/core/pbuf.c ****  */
  70:../../Middlewares/Third_Party/LwIP/src/core/pbuf.c **** 
  71:../../Middlewares/Third_Party/LwIP/src/core/pbuf.c **** #include "lwip/opt.h"
  72:../../Middlewares/Third_Party/LwIP/src/core/pbuf.c **** 
  73:../../Middlewares/Third_Party/LwIP/src/core/pbuf.c **** #include "lwip/pbuf.h"
  74:../../Middlewares/Third_Party/LwIP/src/core/pbuf.c **** #include "lwip/stats.h"
  75:../../Middlewares/Third_Party/LwIP/src/core/pbuf.c **** #include "lwip/def.h"
  76:../../Middlewares/Third_Party/LwIP/src/core/pbuf.c **** #include "lwip/mem.h"
  77:../../Middlewares/Third_Party/LwIP/src/core/pbuf.c **** #include "lwip/memp.h"
  78:../../Middlewares/Third_Party/LwIP/src/core/pbuf.c **** #include "lwip/sys.h"
  79:../../Middlewares/Third_Party/LwIP/src/core/pbuf.c **** #include "lwip/netif.h"
  80:../../Middlewares/Third_Party/LwIP/src/core/pbuf.c **** #if LWIP_TCP && TCP_QUEUE_OOSEQ
  81:../../Middlewares/Third_Party/LwIP/src/core/pbuf.c **** #include "lwip/priv/tcp_priv.h"
  82:../../Middlewares/Third_Party/LwIP/src/core/pbuf.c **** #endif
  83:../../Middlewares/Third_Party/LwIP/src/core/pbuf.c **** #if LWIP_CHECKSUM_ON_COPY
  84:../../Middlewares/Third_Party/LwIP/src/core/pbuf.c **** #include "lwip/inet_chksum.h"
  85:../../Middlewares/Third_Party/LwIP/src/core/pbuf.c **** #endif
  86:../../Middlewares/Third_Party/LwIP/src/core/pbuf.c **** 
  87:../../Middlewares/Third_Party/LwIP/src/core/pbuf.c **** #include <string.h>
  88:../../Middlewares/Third_Party/LwIP/src/core/pbuf.c **** 
  89:../../Middlewares/Third_Party/LwIP/src/core/pbuf.c **** #define SIZEOF_STRUCT_PBUF        LWIP_MEM_ALIGN_SIZE(sizeof(struct pbuf))
ARM GAS  /tmp/cc8sHRun.s 			page 3


  90:../../Middlewares/Third_Party/LwIP/src/core/pbuf.c **** /* Since the pool is created in memp, PBUF_POOL_BUFSIZE will be automatically
  91:../../Middlewares/Third_Party/LwIP/src/core/pbuf.c ****    aligned there. Therefore, PBUF_POOL_BUFSIZE_ALIGNED can be used here. */
  92:../../Middlewares/Third_Party/LwIP/src/core/pbuf.c **** #define PBUF_POOL_BUFSIZE_ALIGNED LWIP_MEM_ALIGN_SIZE(PBUF_POOL_BUFSIZE)
  93:../../Middlewares/Third_Party/LwIP/src/core/pbuf.c **** 
  94:../../Middlewares/Third_Party/LwIP/src/core/pbuf.c **** static const struct pbuf *
  95:../../Middlewares/Third_Party/LwIP/src/core/pbuf.c **** pbuf_skip_const(const struct pbuf *in, u16_t in_offset, u16_t *out_offset);
  96:../../Middlewares/Third_Party/LwIP/src/core/pbuf.c **** 
  97:../../Middlewares/Third_Party/LwIP/src/core/pbuf.c **** #if !LWIP_TCP || !TCP_QUEUE_OOSEQ || !PBUF_POOL_FREE_OOSEQ
  98:../../Middlewares/Third_Party/LwIP/src/core/pbuf.c **** #define PBUF_POOL_IS_EMPTY()
  99:../../Middlewares/Third_Party/LwIP/src/core/pbuf.c **** #else /* !LWIP_TCP || !TCP_QUEUE_OOSEQ || !PBUF_POOL_FREE_OOSEQ */
 100:../../Middlewares/Third_Party/LwIP/src/core/pbuf.c **** 
 101:../../Middlewares/Third_Party/LwIP/src/core/pbuf.c **** #if !NO_SYS
 102:../../Middlewares/Third_Party/LwIP/src/core/pbuf.c **** #ifndef PBUF_POOL_FREE_OOSEQ_QUEUE_CALL
 103:../../Middlewares/Third_Party/LwIP/src/core/pbuf.c **** #include "lwip/tcpip.h"
 104:../../Middlewares/Third_Party/LwIP/src/core/pbuf.c **** #define PBUF_POOL_FREE_OOSEQ_QUEUE_CALL()  do { \
 105:../../Middlewares/Third_Party/LwIP/src/core/pbuf.c ****   if (tcpip_try_callback(pbuf_free_ooseq_callback, NULL) != ERR_OK) { \
 106:../../Middlewares/Third_Party/LwIP/src/core/pbuf.c ****       SYS_ARCH_PROTECT(old_level); \
 107:../../Middlewares/Third_Party/LwIP/src/core/pbuf.c ****       pbuf_free_ooseq_pending = 0; \
 108:../../Middlewares/Third_Party/LwIP/src/core/pbuf.c ****       SYS_ARCH_UNPROTECT(old_level); \
 109:../../Middlewares/Third_Party/LwIP/src/core/pbuf.c ****   } } while(0)
 110:../../Middlewares/Third_Party/LwIP/src/core/pbuf.c **** #endif /* PBUF_POOL_FREE_OOSEQ_QUEUE_CALL */
 111:../../Middlewares/Third_Party/LwIP/src/core/pbuf.c **** #endif /* !NO_SYS */
 112:../../Middlewares/Third_Party/LwIP/src/core/pbuf.c **** 
 113:../../Middlewares/Third_Party/LwIP/src/core/pbuf.c **** volatile u8_t pbuf_free_ooseq_pending;
 114:../../Middlewares/Third_Party/LwIP/src/core/pbuf.c **** #define PBUF_POOL_IS_EMPTY() pbuf_pool_is_empty()
 115:../../Middlewares/Third_Party/LwIP/src/core/pbuf.c **** 
 116:../../Middlewares/Third_Party/LwIP/src/core/pbuf.c **** /**
 117:../../Middlewares/Third_Party/LwIP/src/core/pbuf.c ****  * Attempt to reclaim some memory from queued out-of-sequence TCP segments
 118:../../Middlewares/Third_Party/LwIP/src/core/pbuf.c ****  * if we run out of pool pbufs. It's better to give priority to new packets
 119:../../Middlewares/Third_Party/LwIP/src/core/pbuf.c ****  * if we're running out.
 120:../../Middlewares/Third_Party/LwIP/src/core/pbuf.c ****  *
 121:../../Middlewares/Third_Party/LwIP/src/core/pbuf.c ****  * This must be done in the correct thread context therefore this function
 122:../../Middlewares/Third_Party/LwIP/src/core/pbuf.c ****  * can only be used with NO_SYS=0 and through tcpip_callback.
 123:../../Middlewares/Third_Party/LwIP/src/core/pbuf.c ****  */
 124:../../Middlewares/Third_Party/LwIP/src/core/pbuf.c **** #if !NO_SYS
 125:../../Middlewares/Third_Party/LwIP/src/core/pbuf.c **** static
 126:../../Middlewares/Third_Party/LwIP/src/core/pbuf.c **** #endif /* !NO_SYS */
 127:../../Middlewares/Third_Party/LwIP/src/core/pbuf.c **** void
 128:../../Middlewares/Third_Party/LwIP/src/core/pbuf.c **** pbuf_free_ooseq(void)
 129:../../Middlewares/Third_Party/LwIP/src/core/pbuf.c **** {
 130:../../Middlewares/Third_Party/LwIP/src/core/pbuf.c ****   struct tcp_pcb *pcb;
 131:../../Middlewares/Third_Party/LwIP/src/core/pbuf.c ****   SYS_ARCH_SET(pbuf_free_ooseq_pending, 0);
 132:../../Middlewares/Third_Party/LwIP/src/core/pbuf.c **** 
 133:../../Middlewares/Third_Party/LwIP/src/core/pbuf.c ****   for (pcb = tcp_active_pcbs; NULL != pcb; pcb = pcb->next) {
 134:../../Middlewares/Third_Party/LwIP/src/core/pbuf.c ****     if (pcb->ooseq != NULL) {
 135:../../Middlewares/Third_Party/LwIP/src/core/pbuf.c ****       /** Free the ooseq pbufs of one PCB only */
 136:../../Middlewares/Third_Party/LwIP/src/core/pbuf.c ****       LWIP_DEBUGF(PBUF_DEBUG | LWIP_DBG_TRACE, ("pbuf_free_ooseq: freeing out-of-sequence pbufs\n")
 137:../../Middlewares/Third_Party/LwIP/src/core/pbuf.c ****       tcp_free_ooseq(pcb);
 138:../../Middlewares/Third_Party/LwIP/src/core/pbuf.c ****       return;
 139:../../Middlewares/Third_Party/LwIP/src/core/pbuf.c ****     }
 140:../../Middlewares/Third_Party/LwIP/src/core/pbuf.c ****   }
 141:../../Middlewares/Third_Party/LwIP/src/core/pbuf.c **** }
 142:../../Middlewares/Third_Party/LwIP/src/core/pbuf.c **** 
 143:../../Middlewares/Third_Party/LwIP/src/core/pbuf.c **** #if !NO_SYS
 144:../../Middlewares/Third_Party/LwIP/src/core/pbuf.c **** /**
 145:../../Middlewares/Third_Party/LwIP/src/core/pbuf.c ****  * Just a callback function for tcpip_callback() that calls pbuf_free_ooseq().
 146:../../Middlewares/Third_Party/LwIP/src/core/pbuf.c ****  */
ARM GAS  /tmp/cc8sHRun.s 			page 4


 147:../../Middlewares/Third_Party/LwIP/src/core/pbuf.c **** static void
 148:../../Middlewares/Third_Party/LwIP/src/core/pbuf.c **** pbuf_free_ooseq_callback(void *arg)
 149:../../Middlewares/Third_Party/LwIP/src/core/pbuf.c **** {
 150:../../Middlewares/Third_Party/LwIP/src/core/pbuf.c ****   LWIP_UNUSED_ARG(arg);
 151:../../Middlewares/Third_Party/LwIP/src/core/pbuf.c ****   pbuf_free_ooseq();
 152:../../Middlewares/Third_Party/LwIP/src/core/pbuf.c **** }
 153:../../Middlewares/Third_Party/LwIP/src/core/pbuf.c **** #endif /* !NO_SYS */
 154:../../Middlewares/Third_Party/LwIP/src/core/pbuf.c **** 
 155:../../Middlewares/Third_Party/LwIP/src/core/pbuf.c **** /** Queue a call to pbuf_free_ooseq if not already queued. */
 156:../../Middlewares/Third_Party/LwIP/src/core/pbuf.c **** static void
 157:../../Middlewares/Third_Party/LwIP/src/core/pbuf.c **** pbuf_pool_is_empty(void)
 158:../../Middlewares/Third_Party/LwIP/src/core/pbuf.c **** {
  27              		.loc 1 158 1 view -0
  28              		.cfi_startproc
  29              		@ args = 0, pretend = 0, frame = 0
  30              		@ frame_needed = 0, uses_anonymous_args = 0
  31              		@ link register save eliminated.
 159:../../Middlewares/Third_Party/LwIP/src/core/pbuf.c **** #ifndef PBUF_POOL_FREE_OOSEQ_QUEUE_CALL
 160:../../Middlewares/Third_Party/LwIP/src/core/pbuf.c ****   SYS_ARCH_SET(pbuf_free_ooseq_pending, 1);
  32              		.loc 1 160 3 view .LVU1
  33              		.loc 1 160 3 view .LVU2
  34              		.loc 1 160 3 view .LVU3
  35              		.loc 1 160 3 view .LVU4
  36 0000 014B     		ldr	r3, .L2
  37 0002 0122     		movs	r2, #1
  38 0004 1A70     		strb	r2, [r3]
  39              		.loc 1 160 3 view .LVU5
  40              		.loc 1 160 3 view .LVU6
 161:../../Middlewares/Third_Party/LwIP/src/core/pbuf.c **** #else /* PBUF_POOL_FREE_OOSEQ_QUEUE_CALL */
 162:../../Middlewares/Third_Party/LwIP/src/core/pbuf.c ****   u8_t queued;
 163:../../Middlewares/Third_Party/LwIP/src/core/pbuf.c ****   SYS_ARCH_DECL_PROTECT(old_level);
 164:../../Middlewares/Third_Party/LwIP/src/core/pbuf.c ****   SYS_ARCH_PROTECT(old_level);
 165:../../Middlewares/Third_Party/LwIP/src/core/pbuf.c ****   queued = pbuf_free_ooseq_pending;
 166:../../Middlewares/Third_Party/LwIP/src/core/pbuf.c ****   pbuf_free_ooseq_pending = 1;
 167:../../Middlewares/Third_Party/LwIP/src/core/pbuf.c ****   SYS_ARCH_UNPROTECT(old_level);
 168:../../Middlewares/Third_Party/LwIP/src/core/pbuf.c **** 
 169:../../Middlewares/Third_Party/LwIP/src/core/pbuf.c ****   if (!queued) {
 170:../../Middlewares/Third_Party/LwIP/src/core/pbuf.c ****     /* queue a call to pbuf_free_ooseq if not already queued */
 171:../../Middlewares/Third_Party/LwIP/src/core/pbuf.c ****     PBUF_POOL_FREE_OOSEQ_QUEUE_CALL();
 172:../../Middlewares/Third_Party/LwIP/src/core/pbuf.c ****   }
 173:../../Middlewares/Third_Party/LwIP/src/core/pbuf.c **** #endif /* PBUF_POOL_FREE_OOSEQ_QUEUE_CALL */
 174:../../Middlewares/Third_Party/LwIP/src/core/pbuf.c **** }
  41              		.loc 1 174 1 is_stmt 0 view .LVU7
  42 0006 7047     		bx	lr
  43              	.L3:
  44              		.align	2
  45              	.L2:
  46 0008 00000000 		.word	pbuf_free_ooseq_pending
  47              		.cfi_endproc
  48              	.LFE171:
  50              		.section	.text.pbuf_init_alloced_pbuf,"ax",%progbits
  51              		.align	1
  52              		.syntax unified
  53              		.thumb
  54              		.thumb_func
  56              	pbuf_init_alloced_pbuf:
  57              	.LVL0:
ARM GAS  /tmp/cc8sHRun.s 			page 5


  58              	.LFB172:
 175:../../Middlewares/Third_Party/LwIP/src/core/pbuf.c **** #endif /* !LWIP_TCP || !TCP_QUEUE_OOSEQ || !PBUF_POOL_FREE_OOSEQ */
 176:../../Middlewares/Third_Party/LwIP/src/core/pbuf.c **** 
 177:../../Middlewares/Third_Party/LwIP/src/core/pbuf.c **** /* Initialize members of struct pbuf after allocation */
 178:../../Middlewares/Third_Party/LwIP/src/core/pbuf.c **** static void
 179:../../Middlewares/Third_Party/LwIP/src/core/pbuf.c **** pbuf_init_alloced_pbuf(struct pbuf *p, void *payload, u16_t tot_len, u16_t len, pbuf_type type, u8_
 180:../../Middlewares/Third_Party/LwIP/src/core/pbuf.c **** {
  59              		.loc 1 180 1 is_stmt 1 view -0
  60              		.cfi_startproc
  61              		@ args = 8, pretend = 0, frame = 0
  62              		@ frame_needed = 0, uses_anonymous_args = 0
  63              		@ link register save eliminated.
  64              		.loc 1 180 1 is_stmt 0 view .LVU9
  65 0000 10B4     		push	{r4}
  66              	.LCFI0:
  67              		.cfi_def_cfa_offset 4
  68              		.cfi_offset 4, -4
 181:../../Middlewares/Third_Party/LwIP/src/core/pbuf.c ****   p->next = NULL;
  69              		.loc 1 181 3 is_stmt 1 view .LVU10
  70              		.loc 1 181 11 is_stmt 0 view .LVU11
  71 0002 0024     		movs	r4, #0
  72 0004 0460     		str	r4, [r0]
 182:../../Middlewares/Third_Party/LwIP/src/core/pbuf.c ****   p->payload = payload;
  73              		.loc 1 182 3 is_stmt 1 view .LVU12
  74              		.loc 1 182 14 is_stmt 0 view .LVU13
  75 0006 4160     		str	r1, [r0, #4]
 183:../../Middlewares/Third_Party/LwIP/src/core/pbuf.c ****   p->tot_len = tot_len;
  76              		.loc 1 183 3 is_stmt 1 view .LVU14
  77              		.loc 1 183 14 is_stmt 0 view .LVU15
  78 0008 0281     		strh	r2, [r0, #8]	@ movhi
 184:../../Middlewares/Third_Party/LwIP/src/core/pbuf.c ****   p->len = len;
  79              		.loc 1 184 3 is_stmt 1 view .LVU16
  80              		.loc 1 184 10 is_stmt 0 view .LVU17
  81 000a 4381     		strh	r3, [r0, #10]	@ movhi
 185:../../Middlewares/Third_Party/LwIP/src/core/pbuf.c ****   p->type_internal = (u8_t)type;
  82              		.loc 1 185 3 is_stmt 1 view .LVU18
  83              		.loc 1 185 22 is_stmt 0 view .LVU19
  84 000c 9DF80430 		ldrb	r3, [sp, #4]	@ zero_extendqisi2
  85              	.LVL1:
  86              		.loc 1 185 20 view .LVU20
  87 0010 0373     		strb	r3, [r0, #12]
 186:../../Middlewares/Third_Party/LwIP/src/core/pbuf.c ****   p->flags = flags;
  88              		.loc 1 186 3 is_stmt 1 view .LVU21
  89              		.loc 1 186 12 is_stmt 0 view .LVU22
  90 0012 9DF80830 		ldrb	r3, [sp, #8]	@ zero_extendqisi2
  91 0016 4373     		strb	r3, [r0, #13]
 187:../../Middlewares/Third_Party/LwIP/src/core/pbuf.c ****   p->ref = 1;
  92              		.loc 1 187 3 is_stmt 1 view .LVU23
  93              		.loc 1 187 10 is_stmt 0 view .LVU24
  94 0018 0123     		movs	r3, #1
  95 001a 8373     		strb	r3, [r0, #14]
 188:../../Middlewares/Third_Party/LwIP/src/core/pbuf.c ****   p->if_idx = NETIF_NO_INDEX;
  96              		.loc 1 188 3 is_stmt 1 view .LVU25
  97              		.loc 1 188 13 is_stmt 0 view .LVU26
  98 001c C473     		strb	r4, [r0, #15]
 189:../../Middlewares/Third_Party/LwIP/src/core/pbuf.c **** }
  99              		.loc 1 189 1 view .LVU27
ARM GAS  /tmp/cc8sHRun.s 			page 6


 100 001e 5DF8044B 		ldr	r4, [sp], #4
 101              	.LCFI1:
 102              		.cfi_restore 4
 103              		.cfi_def_cfa_offset 0
 104              	.LVL2:
 105              		.loc 1 189 1 view .LVU28
 106 0022 7047     		bx	lr
 107              		.cfi_endproc
 108              	.LFE172:
 110              		.section	.text.pbuf_skip_const,"ax",%progbits
 111              		.align	1
 112              		.syntax unified
 113              		.thumb
 114              		.thumb_func
 116              	pbuf_skip_const:
 117              	.LVL3:
 118              	.LFB194:
 190:../../Middlewares/Third_Party/LwIP/src/core/pbuf.c **** 
 191:../../Middlewares/Third_Party/LwIP/src/core/pbuf.c **** /**
 192:../../Middlewares/Third_Party/LwIP/src/core/pbuf.c ****  * @ingroup pbuf
 193:../../Middlewares/Third_Party/LwIP/src/core/pbuf.c ****  * Allocates a pbuf of the given type (possibly a chain for PBUF_POOL type).
 194:../../Middlewares/Third_Party/LwIP/src/core/pbuf.c ****  *
 195:../../Middlewares/Third_Party/LwIP/src/core/pbuf.c ****  * The actual memory allocated for the pbuf is determined by the
 196:../../Middlewares/Third_Party/LwIP/src/core/pbuf.c ****  * layer at which the pbuf is allocated and the requested size
 197:../../Middlewares/Third_Party/LwIP/src/core/pbuf.c ****  * (from the size parameter).
 198:../../Middlewares/Third_Party/LwIP/src/core/pbuf.c ****  *
 199:../../Middlewares/Third_Party/LwIP/src/core/pbuf.c ****  * @param layer header size
 200:../../Middlewares/Third_Party/LwIP/src/core/pbuf.c ****  * @param length size of the pbuf's payload
 201:../../Middlewares/Third_Party/LwIP/src/core/pbuf.c ****  * @param type this parameter decides how and where the pbuf
 202:../../Middlewares/Third_Party/LwIP/src/core/pbuf.c ****  * should be allocated as follows:
 203:../../Middlewares/Third_Party/LwIP/src/core/pbuf.c ****  *
 204:../../Middlewares/Third_Party/LwIP/src/core/pbuf.c ****  * - PBUF_RAM: buffer memory for pbuf is allocated as one large
 205:../../Middlewares/Third_Party/LwIP/src/core/pbuf.c ****  *             chunk. This includes protocol headers as well.
 206:../../Middlewares/Third_Party/LwIP/src/core/pbuf.c ****  * - PBUF_ROM: no buffer memory is allocated for the pbuf, even for
 207:../../Middlewares/Third_Party/LwIP/src/core/pbuf.c ****  *             protocol headers. Additional headers must be prepended
 208:../../Middlewares/Third_Party/LwIP/src/core/pbuf.c ****  *             by allocating another pbuf and chain in to the front of
 209:../../Middlewares/Third_Party/LwIP/src/core/pbuf.c ****  *             the ROM pbuf. It is assumed that the memory used is really
 210:../../Middlewares/Third_Party/LwIP/src/core/pbuf.c ****  *             similar to ROM in that it is immutable and will not be
 211:../../Middlewares/Third_Party/LwIP/src/core/pbuf.c ****  *             changed. Memory which is dynamic should generally not
 212:../../Middlewares/Third_Party/LwIP/src/core/pbuf.c ****  *             be attached to PBUF_ROM pbufs. Use PBUF_REF instead.
 213:../../Middlewares/Third_Party/LwIP/src/core/pbuf.c ****  * - PBUF_REF: no buffer memory is allocated for the pbuf, even for
 214:../../Middlewares/Third_Party/LwIP/src/core/pbuf.c ****  *             protocol headers. It is assumed that the pbuf is only
 215:../../Middlewares/Third_Party/LwIP/src/core/pbuf.c ****  *             being used in a single thread. If the pbuf gets queued,
 216:../../Middlewares/Third_Party/LwIP/src/core/pbuf.c ****  *             then pbuf_take should be called to copy the buffer.
 217:../../Middlewares/Third_Party/LwIP/src/core/pbuf.c ****  * - PBUF_POOL: the pbuf is allocated as a pbuf chain, with pbufs from
 218:../../Middlewares/Third_Party/LwIP/src/core/pbuf.c ****  *              the pbuf pool that is allocated during pbuf_init().
 219:../../Middlewares/Third_Party/LwIP/src/core/pbuf.c ****  *
 220:../../Middlewares/Third_Party/LwIP/src/core/pbuf.c ****  * @return the allocated pbuf. If multiple pbufs where allocated, this
 221:../../Middlewares/Third_Party/LwIP/src/core/pbuf.c ****  * is the first pbuf of a pbuf chain.
 222:../../Middlewares/Third_Party/LwIP/src/core/pbuf.c ****  */
 223:../../Middlewares/Third_Party/LwIP/src/core/pbuf.c **** struct pbuf *
 224:../../Middlewares/Third_Party/LwIP/src/core/pbuf.c **** pbuf_alloc(pbuf_layer layer, u16_t length, pbuf_type type)
 225:../../Middlewares/Third_Party/LwIP/src/core/pbuf.c **** {
 226:../../Middlewares/Third_Party/LwIP/src/core/pbuf.c ****   struct pbuf *p;
 227:../../Middlewares/Third_Party/LwIP/src/core/pbuf.c ****   u16_t offset = (u16_t)layer;
 228:../../Middlewares/Third_Party/LwIP/src/core/pbuf.c ****   LWIP_DEBUGF(PBUF_DEBUG | LWIP_DBG_TRACE, ("pbuf_alloc(length=%"U16_F")\n", length));
 229:../../Middlewares/Third_Party/LwIP/src/core/pbuf.c **** 
ARM GAS  /tmp/cc8sHRun.s 			page 7


 230:../../Middlewares/Third_Party/LwIP/src/core/pbuf.c ****   switch (type) {
 231:../../Middlewares/Third_Party/LwIP/src/core/pbuf.c ****     case PBUF_REF: /* fall through */
 232:../../Middlewares/Third_Party/LwIP/src/core/pbuf.c ****     case PBUF_ROM:
 233:../../Middlewares/Third_Party/LwIP/src/core/pbuf.c ****       p = pbuf_alloc_reference(NULL, length, type);
 234:../../Middlewares/Third_Party/LwIP/src/core/pbuf.c ****       break;
 235:../../Middlewares/Third_Party/LwIP/src/core/pbuf.c ****     case PBUF_POOL: {
 236:../../Middlewares/Third_Party/LwIP/src/core/pbuf.c ****       struct pbuf *q, *last;
 237:../../Middlewares/Third_Party/LwIP/src/core/pbuf.c ****       u16_t rem_len; /* remaining length */
 238:../../Middlewares/Third_Party/LwIP/src/core/pbuf.c ****       p = NULL;
 239:../../Middlewares/Third_Party/LwIP/src/core/pbuf.c ****       last = NULL;
 240:../../Middlewares/Third_Party/LwIP/src/core/pbuf.c ****       rem_len = length;
 241:../../Middlewares/Third_Party/LwIP/src/core/pbuf.c ****       do {
 242:../../Middlewares/Third_Party/LwIP/src/core/pbuf.c ****         u16_t qlen;
 243:../../Middlewares/Third_Party/LwIP/src/core/pbuf.c ****         q = (struct pbuf *)memp_malloc(MEMP_PBUF_POOL);
 244:../../Middlewares/Third_Party/LwIP/src/core/pbuf.c ****         if (q == NULL) {
 245:../../Middlewares/Third_Party/LwIP/src/core/pbuf.c ****           PBUF_POOL_IS_EMPTY();
 246:../../Middlewares/Third_Party/LwIP/src/core/pbuf.c ****           /* free chain so far allocated */
 247:../../Middlewares/Third_Party/LwIP/src/core/pbuf.c ****           if (p) {
 248:../../Middlewares/Third_Party/LwIP/src/core/pbuf.c ****             pbuf_free(p);
 249:../../Middlewares/Third_Party/LwIP/src/core/pbuf.c ****           }
 250:../../Middlewares/Third_Party/LwIP/src/core/pbuf.c ****           /* bail out unsuccessfully */
 251:../../Middlewares/Third_Party/LwIP/src/core/pbuf.c ****           return NULL;
 252:../../Middlewares/Third_Party/LwIP/src/core/pbuf.c ****         }
 253:../../Middlewares/Third_Party/LwIP/src/core/pbuf.c ****         qlen = LWIP_MIN(rem_len, (u16_t)(PBUF_POOL_BUFSIZE_ALIGNED - LWIP_MEM_ALIGN_SIZE(offset)));
 254:../../Middlewares/Third_Party/LwIP/src/core/pbuf.c ****         pbuf_init_alloced_pbuf(q, LWIP_MEM_ALIGN((void *)((u8_t *)q + SIZEOF_STRUCT_PBUF + offset))
 255:../../Middlewares/Third_Party/LwIP/src/core/pbuf.c ****                                rem_len, qlen, type, 0);
 256:../../Middlewares/Third_Party/LwIP/src/core/pbuf.c ****         LWIP_ASSERT("pbuf_alloc: pbuf q->payload properly aligned",
 257:../../Middlewares/Third_Party/LwIP/src/core/pbuf.c ****                     ((mem_ptr_t)q->payload % MEM_ALIGNMENT) == 0);
 258:../../Middlewares/Third_Party/LwIP/src/core/pbuf.c ****         LWIP_ASSERT("PBUF_POOL_BUFSIZE must be bigger than MEM_ALIGNMENT",
 259:../../Middlewares/Third_Party/LwIP/src/core/pbuf.c ****                     (PBUF_POOL_BUFSIZE_ALIGNED - LWIP_MEM_ALIGN_SIZE(offset)) > 0 );
 260:../../Middlewares/Third_Party/LwIP/src/core/pbuf.c ****         if (p == NULL) {
 261:../../Middlewares/Third_Party/LwIP/src/core/pbuf.c ****           /* allocated head of pbuf chain (into p) */
 262:../../Middlewares/Third_Party/LwIP/src/core/pbuf.c ****           p = q;
 263:../../Middlewares/Third_Party/LwIP/src/core/pbuf.c ****         } else {
 264:../../Middlewares/Third_Party/LwIP/src/core/pbuf.c ****           /* make previous pbuf point to this pbuf */
 265:../../Middlewares/Third_Party/LwIP/src/core/pbuf.c ****           last->next = q;
 266:../../Middlewares/Third_Party/LwIP/src/core/pbuf.c ****         }
 267:../../Middlewares/Third_Party/LwIP/src/core/pbuf.c ****         last = q;
 268:../../Middlewares/Third_Party/LwIP/src/core/pbuf.c ****         rem_len = (u16_t)(rem_len - qlen);
 269:../../Middlewares/Third_Party/LwIP/src/core/pbuf.c ****         offset = 0;
 270:../../Middlewares/Third_Party/LwIP/src/core/pbuf.c ****       } while (rem_len > 0);
 271:../../Middlewares/Third_Party/LwIP/src/core/pbuf.c ****       break;
 272:../../Middlewares/Third_Party/LwIP/src/core/pbuf.c ****     }
 273:../../Middlewares/Third_Party/LwIP/src/core/pbuf.c ****     case PBUF_RAM: {
 274:../../Middlewares/Third_Party/LwIP/src/core/pbuf.c ****       u16_t payload_len = (u16_t)(LWIP_MEM_ALIGN_SIZE(offset) + LWIP_MEM_ALIGN_SIZE(length));
 275:../../Middlewares/Third_Party/LwIP/src/core/pbuf.c ****       mem_size_t alloc_len = (mem_size_t)(LWIP_MEM_ALIGN_SIZE(SIZEOF_STRUCT_PBUF) + payload_len);
 276:../../Middlewares/Third_Party/LwIP/src/core/pbuf.c **** 
 277:../../Middlewares/Third_Party/LwIP/src/core/pbuf.c ****       /* bug #50040: Check for integer overflow when calculating alloc_len */
 278:../../Middlewares/Third_Party/LwIP/src/core/pbuf.c ****       if ((payload_len < LWIP_MEM_ALIGN_SIZE(length)) ||
 279:../../Middlewares/Third_Party/LwIP/src/core/pbuf.c ****           (alloc_len < LWIP_MEM_ALIGN_SIZE(length))) {
 280:../../Middlewares/Third_Party/LwIP/src/core/pbuf.c ****         return NULL;
 281:../../Middlewares/Third_Party/LwIP/src/core/pbuf.c ****       }
 282:../../Middlewares/Third_Party/LwIP/src/core/pbuf.c **** 
 283:../../Middlewares/Third_Party/LwIP/src/core/pbuf.c ****       /* If pbuf is to be allocated in RAM, allocate memory for it. */
 284:../../Middlewares/Third_Party/LwIP/src/core/pbuf.c ****       p = (struct pbuf *)mem_malloc(alloc_len);
 285:../../Middlewares/Third_Party/LwIP/src/core/pbuf.c ****       if (p == NULL) {
 286:../../Middlewares/Third_Party/LwIP/src/core/pbuf.c ****         return NULL;
ARM GAS  /tmp/cc8sHRun.s 			page 8


 287:../../Middlewares/Third_Party/LwIP/src/core/pbuf.c ****       }
 288:../../Middlewares/Third_Party/LwIP/src/core/pbuf.c ****       pbuf_init_alloced_pbuf(p, LWIP_MEM_ALIGN((void *)((u8_t *)p + SIZEOF_STRUCT_PBUF + offset)),
 289:../../Middlewares/Third_Party/LwIP/src/core/pbuf.c ****                              length, length, type, 0);
 290:../../Middlewares/Third_Party/LwIP/src/core/pbuf.c ****       LWIP_ASSERT("pbuf_alloc: pbuf->payload properly aligned",
 291:../../Middlewares/Third_Party/LwIP/src/core/pbuf.c ****                   ((mem_ptr_t)p->payload % MEM_ALIGNMENT) == 0);
 292:../../Middlewares/Third_Party/LwIP/src/core/pbuf.c ****       break;
 293:../../Middlewares/Third_Party/LwIP/src/core/pbuf.c ****     }
 294:../../Middlewares/Third_Party/LwIP/src/core/pbuf.c ****     default:
 295:../../Middlewares/Third_Party/LwIP/src/core/pbuf.c ****       LWIP_ASSERT("pbuf_alloc: erroneous type", 0);
 296:../../Middlewares/Third_Party/LwIP/src/core/pbuf.c ****       return NULL;
 297:../../Middlewares/Third_Party/LwIP/src/core/pbuf.c ****   }
 298:../../Middlewares/Third_Party/LwIP/src/core/pbuf.c ****   LWIP_DEBUGF(PBUF_DEBUG | LWIP_DBG_TRACE, ("pbuf_alloc(length=%"U16_F") == %p\n", length, (void *)
 299:../../Middlewares/Third_Party/LwIP/src/core/pbuf.c ****   return p;
 300:../../Middlewares/Third_Party/LwIP/src/core/pbuf.c **** }
 301:../../Middlewares/Third_Party/LwIP/src/core/pbuf.c **** 
 302:../../Middlewares/Third_Party/LwIP/src/core/pbuf.c **** /**
 303:../../Middlewares/Third_Party/LwIP/src/core/pbuf.c ****  * @ingroup pbuf
 304:../../Middlewares/Third_Party/LwIP/src/core/pbuf.c ****  * Allocates a pbuf for referenced data.
 305:../../Middlewares/Third_Party/LwIP/src/core/pbuf.c ****  * Referenced data can be volatile (PBUF_REF) or long-lived (PBUF_ROM).
 306:../../Middlewares/Third_Party/LwIP/src/core/pbuf.c ****  *
 307:../../Middlewares/Third_Party/LwIP/src/core/pbuf.c ****  * The actual memory allocated for the pbuf is determined by the
 308:../../Middlewares/Third_Party/LwIP/src/core/pbuf.c ****  * layer at which the pbuf is allocated and the requested size
 309:../../Middlewares/Third_Party/LwIP/src/core/pbuf.c ****  * (from the size parameter).
 310:../../Middlewares/Third_Party/LwIP/src/core/pbuf.c ****  *
 311:../../Middlewares/Third_Party/LwIP/src/core/pbuf.c ****  * @param payload referenced payload
 312:../../Middlewares/Third_Party/LwIP/src/core/pbuf.c ****  * @param length size of the pbuf's payload
 313:../../Middlewares/Third_Party/LwIP/src/core/pbuf.c ****  * @param type this parameter decides how and where the pbuf
 314:../../Middlewares/Third_Party/LwIP/src/core/pbuf.c ****  * should be allocated as follows:
 315:../../Middlewares/Third_Party/LwIP/src/core/pbuf.c ****  *
 316:../../Middlewares/Third_Party/LwIP/src/core/pbuf.c ****  * - PBUF_ROM: It is assumed that the memory used is really
 317:../../Middlewares/Third_Party/LwIP/src/core/pbuf.c ****  *             similar to ROM in that it is immutable and will not be
 318:../../Middlewares/Third_Party/LwIP/src/core/pbuf.c ****  *             changed. Memory which is dynamic should generally not
 319:../../Middlewares/Third_Party/LwIP/src/core/pbuf.c ****  *             be attached to PBUF_ROM pbufs. Use PBUF_REF instead.
 320:../../Middlewares/Third_Party/LwIP/src/core/pbuf.c ****  * - PBUF_REF: It is assumed that the pbuf is only
 321:../../Middlewares/Third_Party/LwIP/src/core/pbuf.c ****  *             being used in a single thread. If the pbuf gets queued,
 322:../../Middlewares/Third_Party/LwIP/src/core/pbuf.c ****  *             then pbuf_take should be called to copy the buffer.
 323:../../Middlewares/Third_Party/LwIP/src/core/pbuf.c ****  *
 324:../../Middlewares/Third_Party/LwIP/src/core/pbuf.c ****  * @return the allocated pbuf.
 325:../../Middlewares/Third_Party/LwIP/src/core/pbuf.c ****  */
 326:../../Middlewares/Third_Party/LwIP/src/core/pbuf.c **** struct pbuf *
 327:../../Middlewares/Third_Party/LwIP/src/core/pbuf.c **** pbuf_alloc_reference(void *payload, u16_t length, pbuf_type type)
 328:../../Middlewares/Third_Party/LwIP/src/core/pbuf.c **** {
 329:../../Middlewares/Third_Party/LwIP/src/core/pbuf.c ****   struct pbuf *p;
 330:../../Middlewares/Third_Party/LwIP/src/core/pbuf.c ****   LWIP_ASSERT("invalid pbuf_type", (type == PBUF_REF) || (type == PBUF_ROM));
 331:../../Middlewares/Third_Party/LwIP/src/core/pbuf.c ****   /* only allocate memory for the pbuf structure */
 332:../../Middlewares/Third_Party/LwIP/src/core/pbuf.c ****   p = (struct pbuf *)memp_malloc(MEMP_PBUF);
 333:../../Middlewares/Third_Party/LwIP/src/core/pbuf.c ****   if (p == NULL) {
 334:../../Middlewares/Third_Party/LwIP/src/core/pbuf.c ****     LWIP_DEBUGF(PBUF_DEBUG | LWIP_DBG_LEVEL_SERIOUS,
 335:../../Middlewares/Third_Party/LwIP/src/core/pbuf.c ****                 ("pbuf_alloc_reference: Could not allocate MEMP_PBUF for PBUF_%s.\n",
 336:../../Middlewares/Third_Party/LwIP/src/core/pbuf.c ****                  (type == PBUF_ROM) ? "ROM" : "REF"));
 337:../../Middlewares/Third_Party/LwIP/src/core/pbuf.c ****     return NULL;
 338:../../Middlewares/Third_Party/LwIP/src/core/pbuf.c ****   }
 339:../../Middlewares/Third_Party/LwIP/src/core/pbuf.c ****   pbuf_init_alloced_pbuf(p, payload, length, length, type, 0);
 340:../../Middlewares/Third_Party/LwIP/src/core/pbuf.c ****   return p;
 341:../../Middlewares/Third_Party/LwIP/src/core/pbuf.c **** }
 342:../../Middlewares/Third_Party/LwIP/src/core/pbuf.c **** 
 343:../../Middlewares/Third_Party/LwIP/src/core/pbuf.c **** 
ARM GAS  /tmp/cc8sHRun.s 			page 9


 344:../../Middlewares/Third_Party/LwIP/src/core/pbuf.c **** #if LWIP_SUPPORT_CUSTOM_PBUF
 345:../../Middlewares/Third_Party/LwIP/src/core/pbuf.c **** /**
 346:../../Middlewares/Third_Party/LwIP/src/core/pbuf.c ****  * @ingroup pbuf
 347:../../Middlewares/Third_Party/LwIP/src/core/pbuf.c ****  * Initialize a custom pbuf (already allocated).
 348:../../Middlewares/Third_Party/LwIP/src/core/pbuf.c ****  * Example of custom pbuf usage: @ref zerocopyrx
 349:../../Middlewares/Third_Party/LwIP/src/core/pbuf.c ****  *
 350:../../Middlewares/Third_Party/LwIP/src/core/pbuf.c ****  * @param l header size
 351:../../Middlewares/Third_Party/LwIP/src/core/pbuf.c ****  * @param length size of the pbuf's payload
 352:../../Middlewares/Third_Party/LwIP/src/core/pbuf.c ****  * @param type type of the pbuf (only used to treat the pbuf accordingly, as
 353:../../Middlewares/Third_Party/LwIP/src/core/pbuf.c ****  *        this function allocates no memory)
 354:../../Middlewares/Third_Party/LwIP/src/core/pbuf.c ****  * @param p pointer to the custom pbuf to initialize (already allocated)
 355:../../Middlewares/Third_Party/LwIP/src/core/pbuf.c ****  * @param payload_mem pointer to the buffer that is used for payload and headers,
 356:../../Middlewares/Third_Party/LwIP/src/core/pbuf.c ****  *        must be at least big enough to hold 'length' plus the header size,
 357:../../Middlewares/Third_Party/LwIP/src/core/pbuf.c ****  *        may be NULL if set later.
 358:../../Middlewares/Third_Party/LwIP/src/core/pbuf.c ****  *        ATTENTION: The caller is responsible for correct alignment of this buffer!!
 359:../../Middlewares/Third_Party/LwIP/src/core/pbuf.c ****  * @param payload_mem_len the size of the 'payload_mem' buffer, must be at least
 360:../../Middlewares/Third_Party/LwIP/src/core/pbuf.c ****  *        big enough to hold 'length' plus the header size
 361:../../Middlewares/Third_Party/LwIP/src/core/pbuf.c ****  */
 362:../../Middlewares/Third_Party/LwIP/src/core/pbuf.c **** struct pbuf *
 363:../../Middlewares/Third_Party/LwIP/src/core/pbuf.c **** pbuf_alloced_custom(pbuf_layer l, u16_t length, pbuf_type type, struct pbuf_custom *p,
 364:../../Middlewares/Third_Party/LwIP/src/core/pbuf.c ****                     void *payload_mem, u16_t payload_mem_len)
 365:../../Middlewares/Third_Party/LwIP/src/core/pbuf.c **** {
 366:../../Middlewares/Third_Party/LwIP/src/core/pbuf.c ****   u16_t offset = (u16_t)l;
 367:../../Middlewares/Third_Party/LwIP/src/core/pbuf.c ****   void *payload;
 368:../../Middlewares/Third_Party/LwIP/src/core/pbuf.c ****   LWIP_DEBUGF(PBUF_DEBUG | LWIP_DBG_TRACE, ("pbuf_alloced_custom(length=%"U16_F")\n", length));
 369:../../Middlewares/Third_Party/LwIP/src/core/pbuf.c **** 
 370:../../Middlewares/Third_Party/LwIP/src/core/pbuf.c ****   if (LWIP_MEM_ALIGN_SIZE(offset) + length > payload_mem_len) {
 371:../../Middlewares/Third_Party/LwIP/src/core/pbuf.c ****     LWIP_DEBUGF(PBUF_DEBUG | LWIP_DBG_LEVEL_WARNING, ("pbuf_alloced_custom(length=%"U16_F") buffer 
 372:../../Middlewares/Third_Party/LwIP/src/core/pbuf.c ****     return NULL;
 373:../../Middlewares/Third_Party/LwIP/src/core/pbuf.c ****   }
 374:../../Middlewares/Third_Party/LwIP/src/core/pbuf.c **** 
 375:../../Middlewares/Third_Party/LwIP/src/core/pbuf.c ****   if (payload_mem != NULL) {
 376:../../Middlewares/Third_Party/LwIP/src/core/pbuf.c ****     payload = (u8_t *)payload_mem + LWIP_MEM_ALIGN_SIZE(offset);
 377:../../Middlewares/Third_Party/LwIP/src/core/pbuf.c ****   } else {
 378:../../Middlewares/Third_Party/LwIP/src/core/pbuf.c ****     payload = NULL;
 379:../../Middlewares/Third_Party/LwIP/src/core/pbuf.c ****   }
 380:../../Middlewares/Third_Party/LwIP/src/core/pbuf.c ****   pbuf_init_alloced_pbuf(&p->pbuf, payload, length, length, type, PBUF_FLAG_IS_CUSTOM);
 381:../../Middlewares/Third_Party/LwIP/src/core/pbuf.c ****   return &p->pbuf;
 382:../../Middlewares/Third_Party/LwIP/src/core/pbuf.c **** }
 383:../../Middlewares/Third_Party/LwIP/src/core/pbuf.c **** #endif /* LWIP_SUPPORT_CUSTOM_PBUF */
 384:../../Middlewares/Third_Party/LwIP/src/core/pbuf.c **** 
 385:../../Middlewares/Third_Party/LwIP/src/core/pbuf.c **** /**
 386:../../Middlewares/Third_Party/LwIP/src/core/pbuf.c ****  * @ingroup pbuf
 387:../../Middlewares/Third_Party/LwIP/src/core/pbuf.c ****  * Shrink a pbuf chain to a desired length.
 388:../../Middlewares/Third_Party/LwIP/src/core/pbuf.c ****  *
 389:../../Middlewares/Third_Party/LwIP/src/core/pbuf.c ****  * @param p pbuf to shrink.
 390:../../Middlewares/Third_Party/LwIP/src/core/pbuf.c ****  * @param new_len desired new length of pbuf chain
 391:../../Middlewares/Third_Party/LwIP/src/core/pbuf.c ****  *
 392:../../Middlewares/Third_Party/LwIP/src/core/pbuf.c ****  * Depending on the desired length, the first few pbufs in a chain might
 393:../../Middlewares/Third_Party/LwIP/src/core/pbuf.c ****  * be skipped and left unchanged. The new last pbuf in the chain will be
 394:../../Middlewares/Third_Party/LwIP/src/core/pbuf.c ****  * resized, and any remaining pbufs will be freed.
 395:../../Middlewares/Third_Party/LwIP/src/core/pbuf.c ****  *
 396:../../Middlewares/Third_Party/LwIP/src/core/pbuf.c ****  * @note If the pbuf is ROM/REF, only the ->tot_len and ->len fields are adjusted.
 397:../../Middlewares/Third_Party/LwIP/src/core/pbuf.c ****  * @note May not be called on a packet queue.
 398:../../Middlewares/Third_Party/LwIP/src/core/pbuf.c ****  *
 399:../../Middlewares/Third_Party/LwIP/src/core/pbuf.c ****  * @note Despite its name, pbuf_realloc cannot grow the size of a pbuf (chain).
 400:../../Middlewares/Third_Party/LwIP/src/core/pbuf.c ****  */
ARM GAS  /tmp/cc8sHRun.s 			page 10


 401:../../Middlewares/Third_Party/LwIP/src/core/pbuf.c **** void
 402:../../Middlewares/Third_Party/LwIP/src/core/pbuf.c **** pbuf_realloc(struct pbuf *p, u16_t new_len)
 403:../../Middlewares/Third_Party/LwIP/src/core/pbuf.c **** {
 404:../../Middlewares/Third_Party/LwIP/src/core/pbuf.c ****   struct pbuf *q;
 405:../../Middlewares/Third_Party/LwIP/src/core/pbuf.c ****   u16_t rem_len; /* remaining length */
 406:../../Middlewares/Third_Party/LwIP/src/core/pbuf.c ****   u16_t shrink;
 407:../../Middlewares/Third_Party/LwIP/src/core/pbuf.c **** 
 408:../../Middlewares/Third_Party/LwIP/src/core/pbuf.c ****   LWIP_ASSERT("pbuf_realloc: p != NULL", p != NULL);
 409:../../Middlewares/Third_Party/LwIP/src/core/pbuf.c **** 
 410:../../Middlewares/Third_Party/LwIP/src/core/pbuf.c ****   /* desired length larger than current length? */
 411:../../Middlewares/Third_Party/LwIP/src/core/pbuf.c ****   if (new_len >= p->tot_len) {
 412:../../Middlewares/Third_Party/LwIP/src/core/pbuf.c ****     /* enlarging not yet supported */
 413:../../Middlewares/Third_Party/LwIP/src/core/pbuf.c ****     return;
 414:../../Middlewares/Third_Party/LwIP/src/core/pbuf.c ****   }
 415:../../Middlewares/Third_Party/LwIP/src/core/pbuf.c **** 
 416:../../Middlewares/Third_Party/LwIP/src/core/pbuf.c ****   /* the pbuf chain grows by (new_len - p->tot_len) bytes
 417:../../Middlewares/Third_Party/LwIP/src/core/pbuf.c ****    * (which may be negative in case of shrinking) */
 418:../../Middlewares/Third_Party/LwIP/src/core/pbuf.c ****   shrink = (u16_t)(p->tot_len - new_len);
 419:../../Middlewares/Third_Party/LwIP/src/core/pbuf.c **** 
 420:../../Middlewares/Third_Party/LwIP/src/core/pbuf.c ****   /* first, step over any pbufs that should remain in the chain */
 421:../../Middlewares/Third_Party/LwIP/src/core/pbuf.c ****   rem_len = new_len;
 422:../../Middlewares/Third_Party/LwIP/src/core/pbuf.c ****   q = p;
 423:../../Middlewares/Third_Party/LwIP/src/core/pbuf.c ****   /* should this pbuf be kept? */
 424:../../Middlewares/Third_Party/LwIP/src/core/pbuf.c ****   while (rem_len > q->len) {
 425:../../Middlewares/Third_Party/LwIP/src/core/pbuf.c ****     /* decrease remaining length by pbuf length */
 426:../../Middlewares/Third_Party/LwIP/src/core/pbuf.c ****     rem_len = (u16_t)(rem_len - q->len);
 427:../../Middlewares/Third_Party/LwIP/src/core/pbuf.c ****     /* decrease total length indicator */
 428:../../Middlewares/Third_Party/LwIP/src/core/pbuf.c ****     q->tot_len = (u16_t)(q->tot_len - shrink);
 429:../../Middlewares/Third_Party/LwIP/src/core/pbuf.c ****     /* proceed to next pbuf in chain */
 430:../../Middlewares/Third_Party/LwIP/src/core/pbuf.c ****     q = q->next;
 431:../../Middlewares/Third_Party/LwIP/src/core/pbuf.c ****     LWIP_ASSERT("pbuf_realloc: q != NULL", q != NULL);
 432:../../Middlewares/Third_Party/LwIP/src/core/pbuf.c ****   }
 433:../../Middlewares/Third_Party/LwIP/src/core/pbuf.c ****   /* we have now reached the new last pbuf (in q) */
 434:../../Middlewares/Third_Party/LwIP/src/core/pbuf.c ****   /* rem_len == desired length for pbuf q */
 435:../../Middlewares/Third_Party/LwIP/src/core/pbuf.c **** 
 436:../../Middlewares/Third_Party/LwIP/src/core/pbuf.c ****   /* shrink allocated memory for PBUF_RAM */
 437:../../Middlewares/Third_Party/LwIP/src/core/pbuf.c ****   /* (other types merely adjust their length fields */
 438:../../Middlewares/Third_Party/LwIP/src/core/pbuf.c ****   if (pbuf_match_allocsrc(q, PBUF_TYPE_ALLOC_SRC_MASK_STD_HEAP) && (rem_len != q->len)
 439:../../Middlewares/Third_Party/LwIP/src/core/pbuf.c **** #if LWIP_SUPPORT_CUSTOM_PBUF
 440:../../Middlewares/Third_Party/LwIP/src/core/pbuf.c ****       && ((q->flags & PBUF_FLAG_IS_CUSTOM) == 0)
 441:../../Middlewares/Third_Party/LwIP/src/core/pbuf.c **** #endif /* LWIP_SUPPORT_CUSTOM_PBUF */
 442:../../Middlewares/Third_Party/LwIP/src/core/pbuf.c ****      ) {
 443:../../Middlewares/Third_Party/LwIP/src/core/pbuf.c ****     /* reallocate and adjust the length of the pbuf that will be split */
 444:../../Middlewares/Third_Party/LwIP/src/core/pbuf.c ****     q = (struct pbuf *)mem_trim(q, (mem_size_t)(((u8_t *)q->payload - (u8_t *)q) + rem_len));
 445:../../Middlewares/Third_Party/LwIP/src/core/pbuf.c ****     LWIP_ASSERT("mem_trim returned q == NULL", q != NULL);
 446:../../Middlewares/Third_Party/LwIP/src/core/pbuf.c ****   }
 447:../../Middlewares/Third_Party/LwIP/src/core/pbuf.c ****   /* adjust length fields for new last pbuf */
 448:../../Middlewares/Third_Party/LwIP/src/core/pbuf.c ****   q->len = rem_len;
 449:../../Middlewares/Third_Party/LwIP/src/core/pbuf.c ****   q->tot_len = q->len;
 450:../../Middlewares/Third_Party/LwIP/src/core/pbuf.c **** 
 451:../../Middlewares/Third_Party/LwIP/src/core/pbuf.c ****   /* any remaining pbufs in chain? */
 452:../../Middlewares/Third_Party/LwIP/src/core/pbuf.c ****   if (q->next != NULL) {
 453:../../Middlewares/Third_Party/LwIP/src/core/pbuf.c ****     /* free remaining pbufs in chain */
 454:../../Middlewares/Third_Party/LwIP/src/core/pbuf.c ****     pbuf_free(q->next);
 455:../../Middlewares/Third_Party/LwIP/src/core/pbuf.c ****   }
 456:../../Middlewares/Third_Party/LwIP/src/core/pbuf.c ****   /* q is last packet in chain */
 457:../../Middlewares/Third_Party/LwIP/src/core/pbuf.c ****   q->next = NULL;
ARM GAS  /tmp/cc8sHRun.s 			page 11


 458:../../Middlewares/Third_Party/LwIP/src/core/pbuf.c **** 
 459:../../Middlewares/Third_Party/LwIP/src/core/pbuf.c **** }
 460:../../Middlewares/Third_Party/LwIP/src/core/pbuf.c **** 
 461:../../Middlewares/Third_Party/LwIP/src/core/pbuf.c **** /**
 462:../../Middlewares/Third_Party/LwIP/src/core/pbuf.c ****  * Adjusts the payload pointer to reveal headers in the payload.
 463:../../Middlewares/Third_Party/LwIP/src/core/pbuf.c ****  * @see pbuf_add_header.
 464:../../Middlewares/Third_Party/LwIP/src/core/pbuf.c ****  *
 465:../../Middlewares/Third_Party/LwIP/src/core/pbuf.c ****  * @param p pbuf to change the header size.
 466:../../Middlewares/Third_Party/LwIP/src/core/pbuf.c ****  * @param header_size_increment Number of bytes to increment header size.
 467:../../Middlewares/Third_Party/LwIP/src/core/pbuf.c ****  * @param force Allow 'header_size_increment > 0' for PBUF_REF/PBUF_ROM types
 468:../../Middlewares/Third_Party/LwIP/src/core/pbuf.c ****  *
 469:../../Middlewares/Third_Party/LwIP/src/core/pbuf.c ****  * @return non-zero on failure, zero on success.
 470:../../Middlewares/Third_Party/LwIP/src/core/pbuf.c ****  *
 471:../../Middlewares/Third_Party/LwIP/src/core/pbuf.c ****  */
 472:../../Middlewares/Third_Party/LwIP/src/core/pbuf.c **** static u8_t
 473:../../Middlewares/Third_Party/LwIP/src/core/pbuf.c **** pbuf_add_header_impl(struct pbuf *p, size_t header_size_increment, u8_t force)
 474:../../Middlewares/Third_Party/LwIP/src/core/pbuf.c **** {
 475:../../Middlewares/Third_Party/LwIP/src/core/pbuf.c ****   u16_t type_internal;
 476:../../Middlewares/Third_Party/LwIP/src/core/pbuf.c ****   void *payload;
 477:../../Middlewares/Third_Party/LwIP/src/core/pbuf.c ****   u16_t increment_magnitude;
 478:../../Middlewares/Third_Party/LwIP/src/core/pbuf.c **** 
 479:../../Middlewares/Third_Party/LwIP/src/core/pbuf.c ****   LWIP_ASSERT("p != NULL", p != NULL);
 480:../../Middlewares/Third_Party/LwIP/src/core/pbuf.c ****   if ((p == NULL) || (header_size_increment > 0xFFFF)) {
 481:../../Middlewares/Third_Party/LwIP/src/core/pbuf.c ****     return 1;
 482:../../Middlewares/Third_Party/LwIP/src/core/pbuf.c ****   }
 483:../../Middlewares/Third_Party/LwIP/src/core/pbuf.c ****   if (header_size_increment == 0) {
 484:../../Middlewares/Third_Party/LwIP/src/core/pbuf.c ****     return 0;
 485:../../Middlewares/Third_Party/LwIP/src/core/pbuf.c ****   }
 486:../../Middlewares/Third_Party/LwIP/src/core/pbuf.c **** 
 487:../../Middlewares/Third_Party/LwIP/src/core/pbuf.c ****   increment_magnitude = (u16_t)header_size_increment;
 488:../../Middlewares/Third_Party/LwIP/src/core/pbuf.c ****   /* Do not allow tot_len to wrap as a result. */
 489:../../Middlewares/Third_Party/LwIP/src/core/pbuf.c ****   if ((u16_t)(increment_magnitude + p->tot_len) < increment_magnitude) {
 490:../../Middlewares/Third_Party/LwIP/src/core/pbuf.c ****     return 1;
 491:../../Middlewares/Third_Party/LwIP/src/core/pbuf.c ****   }
 492:../../Middlewares/Third_Party/LwIP/src/core/pbuf.c **** 
 493:../../Middlewares/Third_Party/LwIP/src/core/pbuf.c ****   type_internal = p->type_internal;
 494:../../Middlewares/Third_Party/LwIP/src/core/pbuf.c **** 
 495:../../Middlewares/Third_Party/LwIP/src/core/pbuf.c ****   /* pbuf types containing payloads? */
 496:../../Middlewares/Third_Party/LwIP/src/core/pbuf.c ****   if (type_internal & PBUF_TYPE_FLAG_STRUCT_DATA_CONTIGUOUS) {
 497:../../Middlewares/Third_Party/LwIP/src/core/pbuf.c ****     /* set new payload pointer */
 498:../../Middlewares/Third_Party/LwIP/src/core/pbuf.c ****     payload = (u8_t *)p->payload - header_size_increment;
 499:../../Middlewares/Third_Party/LwIP/src/core/pbuf.c ****     /* boundary check fails? */
 500:../../Middlewares/Third_Party/LwIP/src/core/pbuf.c ****     if ((u8_t *)payload < (u8_t *)p + SIZEOF_STRUCT_PBUF) {
 501:../../Middlewares/Third_Party/LwIP/src/core/pbuf.c ****       LWIP_DEBUGF( PBUF_DEBUG | LWIP_DBG_TRACE,
 502:../../Middlewares/Third_Party/LwIP/src/core/pbuf.c ****                    ("pbuf_add_header: failed as %p < %p (not enough space for new header size)\n",
 503:../../Middlewares/Third_Party/LwIP/src/core/pbuf.c ****                     (void *)payload, (void *)((u8_t *)p + SIZEOF_STRUCT_PBUF)));
 504:../../Middlewares/Third_Party/LwIP/src/core/pbuf.c ****       /* bail out unsuccessfully */
 505:../../Middlewares/Third_Party/LwIP/src/core/pbuf.c ****       return 1;
 506:../../Middlewares/Third_Party/LwIP/src/core/pbuf.c ****     }
 507:../../Middlewares/Third_Party/LwIP/src/core/pbuf.c ****     /* pbuf types referring to external payloads? */
 508:../../Middlewares/Third_Party/LwIP/src/core/pbuf.c ****   } else {
 509:../../Middlewares/Third_Party/LwIP/src/core/pbuf.c ****     /* hide a header in the payload? */
 510:../../Middlewares/Third_Party/LwIP/src/core/pbuf.c ****     if (force) {
 511:../../Middlewares/Third_Party/LwIP/src/core/pbuf.c ****       payload = (u8_t *)p->payload - header_size_increment;
 512:../../Middlewares/Third_Party/LwIP/src/core/pbuf.c ****     } else {
 513:../../Middlewares/Third_Party/LwIP/src/core/pbuf.c ****       /* cannot expand payload to front (yet!)
 514:../../Middlewares/Third_Party/LwIP/src/core/pbuf.c ****        * bail out unsuccessfully */
ARM GAS  /tmp/cc8sHRun.s 			page 12


 515:../../Middlewares/Third_Party/LwIP/src/core/pbuf.c ****       return 1;
 516:../../Middlewares/Third_Party/LwIP/src/core/pbuf.c ****     }
 517:../../Middlewares/Third_Party/LwIP/src/core/pbuf.c ****   }
 518:../../Middlewares/Third_Party/LwIP/src/core/pbuf.c ****   LWIP_DEBUGF(PBUF_DEBUG | LWIP_DBG_TRACE, ("pbuf_add_header: old %p new %p (%"U16_F")\n",
 519:../../Middlewares/Third_Party/LwIP/src/core/pbuf.c ****               (void *)p->payload, (void *)payload, increment_magnitude));
 520:../../Middlewares/Third_Party/LwIP/src/core/pbuf.c **** 
 521:../../Middlewares/Third_Party/LwIP/src/core/pbuf.c ****   /* modify pbuf fields */
 522:../../Middlewares/Third_Party/LwIP/src/core/pbuf.c ****   p->payload = payload;
 523:../../Middlewares/Third_Party/LwIP/src/core/pbuf.c ****   p->len = (u16_t)(p->len + increment_magnitude);
 524:../../Middlewares/Third_Party/LwIP/src/core/pbuf.c ****   p->tot_len = (u16_t)(p->tot_len + increment_magnitude);
 525:../../Middlewares/Third_Party/LwIP/src/core/pbuf.c **** 
 526:../../Middlewares/Third_Party/LwIP/src/core/pbuf.c **** 
 527:../../Middlewares/Third_Party/LwIP/src/core/pbuf.c ****   return 0;
 528:../../Middlewares/Third_Party/LwIP/src/core/pbuf.c **** }
 529:../../Middlewares/Third_Party/LwIP/src/core/pbuf.c **** 
 530:../../Middlewares/Third_Party/LwIP/src/core/pbuf.c **** /**
 531:../../Middlewares/Third_Party/LwIP/src/core/pbuf.c ****  * Adjusts the payload pointer to reveal headers in the payload.
 532:../../Middlewares/Third_Party/LwIP/src/core/pbuf.c ****  *
 533:../../Middlewares/Third_Party/LwIP/src/core/pbuf.c ****  * Adjusts the ->payload pointer so that space for a header
 534:../../Middlewares/Third_Party/LwIP/src/core/pbuf.c ****  * appears in the pbuf payload.
 535:../../Middlewares/Third_Party/LwIP/src/core/pbuf.c ****  *
 536:../../Middlewares/Third_Party/LwIP/src/core/pbuf.c ****  * The ->payload, ->tot_len and ->len fields are adjusted.
 537:../../Middlewares/Third_Party/LwIP/src/core/pbuf.c ****  *
 538:../../Middlewares/Third_Party/LwIP/src/core/pbuf.c ****  * @param p pbuf to change the header size.
 539:../../Middlewares/Third_Party/LwIP/src/core/pbuf.c ****  * @param header_size_increment Number of bytes to increment header size which
 540:../../Middlewares/Third_Party/LwIP/src/core/pbuf.c ****  *          increases the size of the pbuf. New space is on the front.
 541:../../Middlewares/Third_Party/LwIP/src/core/pbuf.c ****  *          If header_size_increment is 0, this function does nothing and returns successful.
 542:../../Middlewares/Third_Party/LwIP/src/core/pbuf.c ****  *
 543:../../Middlewares/Third_Party/LwIP/src/core/pbuf.c ****  * PBUF_ROM and PBUF_REF type buffers cannot have their sizes increased, so
 544:../../Middlewares/Third_Party/LwIP/src/core/pbuf.c ****  * the call will fail. A check is made that the increase in header size does
 545:../../Middlewares/Third_Party/LwIP/src/core/pbuf.c ****  * not move the payload pointer in front of the start of the buffer.
 546:../../Middlewares/Third_Party/LwIP/src/core/pbuf.c ****  *
 547:../../Middlewares/Third_Party/LwIP/src/core/pbuf.c ****  * @return non-zero on failure, zero on success.
 548:../../Middlewares/Third_Party/LwIP/src/core/pbuf.c ****  *
 549:../../Middlewares/Third_Party/LwIP/src/core/pbuf.c ****  */
 550:../../Middlewares/Third_Party/LwIP/src/core/pbuf.c **** u8_t
 551:../../Middlewares/Third_Party/LwIP/src/core/pbuf.c **** pbuf_add_header(struct pbuf *p, size_t header_size_increment)
 552:../../Middlewares/Third_Party/LwIP/src/core/pbuf.c **** {
 553:../../Middlewares/Third_Party/LwIP/src/core/pbuf.c ****   return pbuf_add_header_impl(p, header_size_increment, 0);
 554:../../Middlewares/Third_Party/LwIP/src/core/pbuf.c **** }
 555:../../Middlewares/Third_Party/LwIP/src/core/pbuf.c **** 
 556:../../Middlewares/Third_Party/LwIP/src/core/pbuf.c **** /**
 557:../../Middlewares/Third_Party/LwIP/src/core/pbuf.c ****  * Same as @ref pbuf_add_header but does not check if 'header_size > 0' is allowed.
 558:../../Middlewares/Third_Party/LwIP/src/core/pbuf.c ****  * This is used internally only, to allow PBUF_REF for RX.
 559:../../Middlewares/Third_Party/LwIP/src/core/pbuf.c ****  */
 560:../../Middlewares/Third_Party/LwIP/src/core/pbuf.c **** u8_t
 561:../../Middlewares/Third_Party/LwIP/src/core/pbuf.c **** pbuf_add_header_force(struct pbuf *p, size_t header_size_increment)
 562:../../Middlewares/Third_Party/LwIP/src/core/pbuf.c **** {
 563:../../Middlewares/Third_Party/LwIP/src/core/pbuf.c ****   return pbuf_add_header_impl(p, header_size_increment, 1);
 564:../../Middlewares/Third_Party/LwIP/src/core/pbuf.c **** }
 565:../../Middlewares/Third_Party/LwIP/src/core/pbuf.c **** 
 566:../../Middlewares/Third_Party/LwIP/src/core/pbuf.c **** /**
 567:../../Middlewares/Third_Party/LwIP/src/core/pbuf.c ****  * Adjusts the payload pointer to hide headers in the payload.
 568:../../Middlewares/Third_Party/LwIP/src/core/pbuf.c ****  *
 569:../../Middlewares/Third_Party/LwIP/src/core/pbuf.c ****  * Adjusts the ->payload pointer so that space for a header
 570:../../Middlewares/Third_Party/LwIP/src/core/pbuf.c ****  * disappears in the pbuf payload.
 571:../../Middlewares/Third_Party/LwIP/src/core/pbuf.c ****  *
ARM GAS  /tmp/cc8sHRun.s 			page 13


 572:../../Middlewares/Third_Party/LwIP/src/core/pbuf.c ****  * The ->payload, ->tot_len and ->len fields are adjusted.
 573:../../Middlewares/Third_Party/LwIP/src/core/pbuf.c ****  *
 574:../../Middlewares/Third_Party/LwIP/src/core/pbuf.c ****  * @param p pbuf to change the header size.
 575:../../Middlewares/Third_Party/LwIP/src/core/pbuf.c ****  * @param header_size_decrement Number of bytes to decrement header size which
 576:../../Middlewares/Third_Party/LwIP/src/core/pbuf.c ****  *          decreases the size of the pbuf.
 577:../../Middlewares/Third_Party/LwIP/src/core/pbuf.c ****  *          If header_size_decrement is 0, this function does nothing and returns successful.
 578:../../Middlewares/Third_Party/LwIP/src/core/pbuf.c ****  * @return non-zero on failure, zero on success.
 579:../../Middlewares/Third_Party/LwIP/src/core/pbuf.c ****  *
 580:../../Middlewares/Third_Party/LwIP/src/core/pbuf.c ****  */
 581:../../Middlewares/Third_Party/LwIP/src/core/pbuf.c **** u8_t
 582:../../Middlewares/Third_Party/LwIP/src/core/pbuf.c **** pbuf_remove_header(struct pbuf *p, size_t header_size_decrement)
 583:../../Middlewares/Third_Party/LwIP/src/core/pbuf.c **** {
 584:../../Middlewares/Third_Party/LwIP/src/core/pbuf.c ****   void *payload;
 585:../../Middlewares/Third_Party/LwIP/src/core/pbuf.c ****   u16_t increment_magnitude;
 586:../../Middlewares/Third_Party/LwIP/src/core/pbuf.c **** 
 587:../../Middlewares/Third_Party/LwIP/src/core/pbuf.c ****   LWIP_ASSERT("p != NULL", p != NULL);
 588:../../Middlewares/Third_Party/LwIP/src/core/pbuf.c ****   if ((p == NULL) || (header_size_decrement > 0xFFFF)) {
 589:../../Middlewares/Third_Party/LwIP/src/core/pbuf.c ****     return 1;
 590:../../Middlewares/Third_Party/LwIP/src/core/pbuf.c ****   }
 591:../../Middlewares/Third_Party/LwIP/src/core/pbuf.c ****   if (header_size_decrement == 0) {
 592:../../Middlewares/Third_Party/LwIP/src/core/pbuf.c ****     return 0;
 593:../../Middlewares/Third_Party/LwIP/src/core/pbuf.c ****   }
 594:../../Middlewares/Third_Party/LwIP/src/core/pbuf.c **** 
 595:../../Middlewares/Third_Party/LwIP/src/core/pbuf.c ****   increment_magnitude = (u16_t)header_size_decrement;
 596:../../Middlewares/Third_Party/LwIP/src/core/pbuf.c ****   /* Check that we aren't going to move off the end of the pbuf */
 597:../../Middlewares/Third_Party/LwIP/src/core/pbuf.c ****   LWIP_ERROR("increment_magnitude <= p->len", (increment_magnitude <= p->len), return 1;);
 598:../../Middlewares/Third_Party/LwIP/src/core/pbuf.c **** 
 599:../../Middlewares/Third_Party/LwIP/src/core/pbuf.c ****   /* remember current payload pointer */
 600:../../Middlewares/Third_Party/LwIP/src/core/pbuf.c ****   payload = p->payload;
 601:../../Middlewares/Third_Party/LwIP/src/core/pbuf.c ****   LWIP_UNUSED_ARG(payload); /* only used in LWIP_DEBUGF below */
 602:../../Middlewares/Third_Party/LwIP/src/core/pbuf.c **** 
 603:../../Middlewares/Third_Party/LwIP/src/core/pbuf.c ****   /* increase payload pointer (guarded by length check above) */
 604:../../Middlewares/Third_Party/LwIP/src/core/pbuf.c ****   p->payload = (u8_t *)p->payload + header_size_decrement;
 605:../../Middlewares/Third_Party/LwIP/src/core/pbuf.c ****   /* modify pbuf length fields */
 606:../../Middlewares/Third_Party/LwIP/src/core/pbuf.c ****   p->len = (u16_t)(p->len - increment_magnitude);
 607:../../Middlewares/Third_Party/LwIP/src/core/pbuf.c ****   p->tot_len = (u16_t)(p->tot_len - increment_magnitude);
 608:../../Middlewares/Third_Party/LwIP/src/core/pbuf.c **** 
 609:../../Middlewares/Third_Party/LwIP/src/core/pbuf.c ****   LWIP_DEBUGF(PBUF_DEBUG | LWIP_DBG_TRACE, ("pbuf_remove_header: old %p new %p (%"U16_F")\n",
 610:../../Middlewares/Third_Party/LwIP/src/core/pbuf.c ****               (void *)payload, (void *)p->payload, increment_magnitude));
 611:../../Middlewares/Third_Party/LwIP/src/core/pbuf.c **** 
 612:../../Middlewares/Third_Party/LwIP/src/core/pbuf.c ****   return 0;
 613:../../Middlewares/Third_Party/LwIP/src/core/pbuf.c **** }
 614:../../Middlewares/Third_Party/LwIP/src/core/pbuf.c **** 
 615:../../Middlewares/Third_Party/LwIP/src/core/pbuf.c **** static u8_t
 616:../../Middlewares/Third_Party/LwIP/src/core/pbuf.c **** pbuf_header_impl(struct pbuf *p, s16_t header_size_increment, u8_t force)
 617:../../Middlewares/Third_Party/LwIP/src/core/pbuf.c **** {
 618:../../Middlewares/Third_Party/LwIP/src/core/pbuf.c ****   if (header_size_increment < 0) {
 619:../../Middlewares/Third_Party/LwIP/src/core/pbuf.c ****     return pbuf_remove_header(p, (size_t) - header_size_increment);
 620:../../Middlewares/Third_Party/LwIP/src/core/pbuf.c ****   } else {
 621:../../Middlewares/Third_Party/LwIP/src/core/pbuf.c ****     return pbuf_add_header_impl(p, (size_t)header_size_increment, force);
 622:../../Middlewares/Third_Party/LwIP/src/core/pbuf.c ****   }
 623:../../Middlewares/Third_Party/LwIP/src/core/pbuf.c **** }
 624:../../Middlewares/Third_Party/LwIP/src/core/pbuf.c **** 
 625:../../Middlewares/Third_Party/LwIP/src/core/pbuf.c **** /**
 626:../../Middlewares/Third_Party/LwIP/src/core/pbuf.c ****  * Adjusts the payload pointer to hide or reveal headers in the payload.
 627:../../Middlewares/Third_Party/LwIP/src/core/pbuf.c ****  *
 628:../../Middlewares/Third_Party/LwIP/src/core/pbuf.c ****  * Adjusts the ->payload pointer so that space for a header
ARM GAS  /tmp/cc8sHRun.s 			page 14


 629:../../Middlewares/Third_Party/LwIP/src/core/pbuf.c ****  * (dis)appears in the pbuf payload.
 630:../../Middlewares/Third_Party/LwIP/src/core/pbuf.c ****  *
 631:../../Middlewares/Third_Party/LwIP/src/core/pbuf.c ****  * The ->payload, ->tot_len and ->len fields are adjusted.
 632:../../Middlewares/Third_Party/LwIP/src/core/pbuf.c ****  *
 633:../../Middlewares/Third_Party/LwIP/src/core/pbuf.c ****  * @param p pbuf to change the header size.
 634:../../Middlewares/Third_Party/LwIP/src/core/pbuf.c ****  * @param header_size_increment Number of bytes to increment header size which
 635:../../Middlewares/Third_Party/LwIP/src/core/pbuf.c ****  * increases the size of the pbuf. New space is on the front.
 636:../../Middlewares/Third_Party/LwIP/src/core/pbuf.c ****  * (Using a negative value decreases the header size.)
 637:../../Middlewares/Third_Party/LwIP/src/core/pbuf.c ****  * If header_size_increment is 0, this function does nothing and returns successful.
 638:../../Middlewares/Third_Party/LwIP/src/core/pbuf.c ****  *
 639:../../Middlewares/Third_Party/LwIP/src/core/pbuf.c ****  * PBUF_ROM and PBUF_REF type buffers cannot have their sizes increased, so
 640:../../Middlewares/Third_Party/LwIP/src/core/pbuf.c ****  * the call will fail. A check is made that the increase in header size does
 641:../../Middlewares/Third_Party/LwIP/src/core/pbuf.c ****  * not move the payload pointer in front of the start of the buffer.
 642:../../Middlewares/Third_Party/LwIP/src/core/pbuf.c ****  * @return non-zero on failure, zero on success.
 643:../../Middlewares/Third_Party/LwIP/src/core/pbuf.c ****  *
 644:../../Middlewares/Third_Party/LwIP/src/core/pbuf.c ****  */
 645:../../Middlewares/Third_Party/LwIP/src/core/pbuf.c **** u8_t
 646:../../Middlewares/Third_Party/LwIP/src/core/pbuf.c **** pbuf_header(struct pbuf *p, s16_t header_size_increment)
 647:../../Middlewares/Third_Party/LwIP/src/core/pbuf.c **** {
 648:../../Middlewares/Third_Party/LwIP/src/core/pbuf.c ****   return pbuf_header_impl(p, header_size_increment, 0);
 649:../../Middlewares/Third_Party/LwIP/src/core/pbuf.c **** }
 650:../../Middlewares/Third_Party/LwIP/src/core/pbuf.c **** 
 651:../../Middlewares/Third_Party/LwIP/src/core/pbuf.c **** /**
 652:../../Middlewares/Third_Party/LwIP/src/core/pbuf.c ****  * Same as pbuf_header but does not check if 'header_size > 0' is allowed.
 653:../../Middlewares/Third_Party/LwIP/src/core/pbuf.c ****  * This is used internally only, to allow PBUF_REF for RX.
 654:../../Middlewares/Third_Party/LwIP/src/core/pbuf.c ****  */
 655:../../Middlewares/Third_Party/LwIP/src/core/pbuf.c **** u8_t
 656:../../Middlewares/Third_Party/LwIP/src/core/pbuf.c **** pbuf_header_force(struct pbuf *p, s16_t header_size_increment)
 657:../../Middlewares/Third_Party/LwIP/src/core/pbuf.c **** {
 658:../../Middlewares/Third_Party/LwIP/src/core/pbuf.c ****   return pbuf_header_impl(p, header_size_increment, 1);
 659:../../Middlewares/Third_Party/LwIP/src/core/pbuf.c **** }
 660:../../Middlewares/Third_Party/LwIP/src/core/pbuf.c **** 
 661:../../Middlewares/Third_Party/LwIP/src/core/pbuf.c **** /** Similar to pbuf_header(-size) but de-refs header pbufs for (size >= p->len)
 662:../../Middlewares/Third_Party/LwIP/src/core/pbuf.c ****  *
 663:../../Middlewares/Third_Party/LwIP/src/core/pbuf.c ****  * @param q pbufs to operate on
 664:../../Middlewares/Third_Party/LwIP/src/core/pbuf.c ****  * @param size The number of bytes to remove from the beginning of the pbuf list.
 665:../../Middlewares/Third_Party/LwIP/src/core/pbuf.c ****  *             While size >= p->len, pbufs are freed.
 666:../../Middlewares/Third_Party/LwIP/src/core/pbuf.c ****  *        ATTENTION: this is the opposite direction as @ref pbuf_header, but
 667:../../Middlewares/Third_Party/LwIP/src/core/pbuf.c ****  *                   takes an u16_t not s16_t!
 668:../../Middlewares/Third_Party/LwIP/src/core/pbuf.c ****  * @return the new head pbuf
 669:../../Middlewares/Third_Party/LwIP/src/core/pbuf.c ****  */
 670:../../Middlewares/Third_Party/LwIP/src/core/pbuf.c **** struct pbuf *
 671:../../Middlewares/Third_Party/LwIP/src/core/pbuf.c **** pbuf_free_header(struct pbuf *q, u16_t size)
 672:../../Middlewares/Third_Party/LwIP/src/core/pbuf.c **** {
 673:../../Middlewares/Third_Party/LwIP/src/core/pbuf.c ****   struct pbuf *p = q;
 674:../../Middlewares/Third_Party/LwIP/src/core/pbuf.c ****   u16_t free_left = size;
 675:../../Middlewares/Third_Party/LwIP/src/core/pbuf.c ****   while (free_left && p) {
 676:../../Middlewares/Third_Party/LwIP/src/core/pbuf.c ****     if (free_left >= p->len) {
 677:../../Middlewares/Third_Party/LwIP/src/core/pbuf.c ****       struct pbuf *f = p;
 678:../../Middlewares/Third_Party/LwIP/src/core/pbuf.c ****       free_left = (u16_t)(free_left - p->len);
 679:../../Middlewares/Third_Party/LwIP/src/core/pbuf.c ****       p = p->next;
 680:../../Middlewares/Third_Party/LwIP/src/core/pbuf.c ****       f->next = 0;
 681:../../Middlewares/Third_Party/LwIP/src/core/pbuf.c ****       pbuf_free(f);
 682:../../Middlewares/Third_Party/LwIP/src/core/pbuf.c ****     } else {
 683:../../Middlewares/Third_Party/LwIP/src/core/pbuf.c ****       pbuf_remove_header(p, free_left);
 684:../../Middlewares/Third_Party/LwIP/src/core/pbuf.c ****       free_left = 0;
 685:../../Middlewares/Third_Party/LwIP/src/core/pbuf.c ****     }
ARM GAS  /tmp/cc8sHRun.s 			page 15


 686:../../Middlewares/Third_Party/LwIP/src/core/pbuf.c ****   }
 687:../../Middlewares/Third_Party/LwIP/src/core/pbuf.c ****   return p;
 688:../../Middlewares/Third_Party/LwIP/src/core/pbuf.c **** }
 689:../../Middlewares/Third_Party/LwIP/src/core/pbuf.c **** 
 690:../../Middlewares/Third_Party/LwIP/src/core/pbuf.c **** /**
 691:../../Middlewares/Third_Party/LwIP/src/core/pbuf.c ****  * @ingroup pbuf
 692:../../Middlewares/Third_Party/LwIP/src/core/pbuf.c ****  * Dereference a pbuf chain or queue and deallocate any no-longer-used
 693:../../Middlewares/Third_Party/LwIP/src/core/pbuf.c ****  * pbufs at the head of this chain or queue.
 694:../../Middlewares/Third_Party/LwIP/src/core/pbuf.c ****  *
 695:../../Middlewares/Third_Party/LwIP/src/core/pbuf.c ****  * Decrements the pbuf reference count. If it reaches zero, the pbuf is
 696:../../Middlewares/Third_Party/LwIP/src/core/pbuf.c ****  * deallocated.
 697:../../Middlewares/Third_Party/LwIP/src/core/pbuf.c ****  *
 698:../../Middlewares/Third_Party/LwIP/src/core/pbuf.c ****  * For a pbuf chain, this is repeated for each pbuf in the chain,
 699:../../Middlewares/Third_Party/LwIP/src/core/pbuf.c ****  * up to the first pbuf which has a non-zero reference count after
 700:../../Middlewares/Third_Party/LwIP/src/core/pbuf.c ****  * decrementing. So, when all reference counts are one, the whole
 701:../../Middlewares/Third_Party/LwIP/src/core/pbuf.c ****  * chain is free'd.
 702:../../Middlewares/Third_Party/LwIP/src/core/pbuf.c ****  *
 703:../../Middlewares/Third_Party/LwIP/src/core/pbuf.c ****  * @param p The pbuf (chain) to be dereferenced.
 704:../../Middlewares/Third_Party/LwIP/src/core/pbuf.c ****  *
 705:../../Middlewares/Third_Party/LwIP/src/core/pbuf.c ****  * @return the number of pbufs that were de-allocated
 706:../../Middlewares/Third_Party/LwIP/src/core/pbuf.c ****  * from the head of the chain.
 707:../../Middlewares/Third_Party/LwIP/src/core/pbuf.c ****  *
 708:../../Middlewares/Third_Party/LwIP/src/core/pbuf.c ****  * @note MUST NOT be called on a packet queue (Not verified to work yet).
 709:../../Middlewares/Third_Party/LwIP/src/core/pbuf.c ****  * @note the reference counter of a pbuf equals the number of pointers
 710:../../Middlewares/Third_Party/LwIP/src/core/pbuf.c ****  * that refer to the pbuf (or into the pbuf).
 711:../../Middlewares/Third_Party/LwIP/src/core/pbuf.c ****  *
 712:../../Middlewares/Third_Party/LwIP/src/core/pbuf.c ****  * @internal examples:
 713:../../Middlewares/Third_Party/LwIP/src/core/pbuf.c ****  *
 714:../../Middlewares/Third_Party/LwIP/src/core/pbuf.c ****  * Assuming existing chains a->b->c with the following reference
 715:../../Middlewares/Third_Party/LwIP/src/core/pbuf.c ****  * counts, calling pbuf_free(a) results in:
 716:../../Middlewares/Third_Party/LwIP/src/core/pbuf.c ****  *
 717:../../Middlewares/Third_Party/LwIP/src/core/pbuf.c ****  * 1->2->3 becomes ...1->3
 718:../../Middlewares/Third_Party/LwIP/src/core/pbuf.c ****  * 3->3->3 becomes 2->3->3
 719:../../Middlewares/Third_Party/LwIP/src/core/pbuf.c ****  * 1->1->2 becomes ......1
 720:../../Middlewares/Third_Party/LwIP/src/core/pbuf.c ****  * 2->1->1 becomes 1->1->1
 721:../../Middlewares/Third_Party/LwIP/src/core/pbuf.c ****  * 1->1->1 becomes .......
 722:../../Middlewares/Third_Party/LwIP/src/core/pbuf.c ****  *
 723:../../Middlewares/Third_Party/LwIP/src/core/pbuf.c ****  */
 724:../../Middlewares/Third_Party/LwIP/src/core/pbuf.c **** u8_t
 725:../../Middlewares/Third_Party/LwIP/src/core/pbuf.c **** pbuf_free(struct pbuf *p)
 726:../../Middlewares/Third_Party/LwIP/src/core/pbuf.c **** {
 727:../../Middlewares/Third_Party/LwIP/src/core/pbuf.c ****   u8_t alloc_src;
 728:../../Middlewares/Third_Party/LwIP/src/core/pbuf.c ****   struct pbuf *q;
 729:../../Middlewares/Third_Party/LwIP/src/core/pbuf.c ****   u8_t count;
 730:../../Middlewares/Third_Party/LwIP/src/core/pbuf.c **** 
 731:../../Middlewares/Third_Party/LwIP/src/core/pbuf.c ****   if (p == NULL) {
 732:../../Middlewares/Third_Party/LwIP/src/core/pbuf.c ****     LWIP_ASSERT("p != NULL", p != NULL);
 733:../../Middlewares/Third_Party/LwIP/src/core/pbuf.c ****     /* if assertions are disabled, proceed with debug output */
 734:../../Middlewares/Third_Party/LwIP/src/core/pbuf.c ****     LWIP_DEBUGF(PBUF_DEBUG | LWIP_DBG_LEVEL_SERIOUS,
 735:../../Middlewares/Third_Party/LwIP/src/core/pbuf.c ****                 ("pbuf_free(p == NULL) was called.\n"));
 736:../../Middlewares/Third_Party/LwIP/src/core/pbuf.c ****     return 0;
 737:../../Middlewares/Third_Party/LwIP/src/core/pbuf.c ****   }
 738:../../Middlewares/Third_Party/LwIP/src/core/pbuf.c ****   LWIP_DEBUGF(PBUF_DEBUG | LWIP_DBG_TRACE, ("pbuf_free(%p)\n", (void *)p));
 739:../../Middlewares/Third_Party/LwIP/src/core/pbuf.c **** 
 740:../../Middlewares/Third_Party/LwIP/src/core/pbuf.c ****   PERF_START;
 741:../../Middlewares/Third_Party/LwIP/src/core/pbuf.c **** 
 742:../../Middlewares/Third_Party/LwIP/src/core/pbuf.c ****   count = 0;
ARM GAS  /tmp/cc8sHRun.s 			page 16


 743:../../Middlewares/Third_Party/LwIP/src/core/pbuf.c ****   /* de-allocate all consecutive pbufs from the head of the chain that
 744:../../Middlewares/Third_Party/LwIP/src/core/pbuf.c ****    * obtain a zero reference count after decrementing*/
 745:../../Middlewares/Third_Party/LwIP/src/core/pbuf.c ****   while (p != NULL) {
 746:../../Middlewares/Third_Party/LwIP/src/core/pbuf.c ****     LWIP_PBUF_REF_T ref;
 747:../../Middlewares/Third_Party/LwIP/src/core/pbuf.c ****     SYS_ARCH_DECL_PROTECT(old_level);
 748:../../Middlewares/Third_Party/LwIP/src/core/pbuf.c ****     /* Since decrementing ref cannot be guaranteed to be a single machine operation
 749:../../Middlewares/Third_Party/LwIP/src/core/pbuf.c ****      * we must protect it. We put the new ref into a local variable to prevent
 750:../../Middlewares/Third_Party/LwIP/src/core/pbuf.c ****      * further protection. */
 751:../../Middlewares/Third_Party/LwIP/src/core/pbuf.c ****     SYS_ARCH_PROTECT(old_level);
 752:../../Middlewares/Third_Party/LwIP/src/core/pbuf.c ****     /* all pbufs in a chain are referenced at least once */
 753:../../Middlewares/Third_Party/LwIP/src/core/pbuf.c ****     LWIP_ASSERT("pbuf_free: p->ref > 0", p->ref > 0);
 754:../../Middlewares/Third_Party/LwIP/src/core/pbuf.c ****     /* decrease reference count (number of pointers to pbuf) */
 755:../../Middlewares/Third_Party/LwIP/src/core/pbuf.c ****     ref = --(p->ref);
 756:../../Middlewares/Third_Party/LwIP/src/core/pbuf.c ****     SYS_ARCH_UNPROTECT(old_level);
 757:../../Middlewares/Third_Party/LwIP/src/core/pbuf.c ****     /* this pbuf is no longer referenced to? */
 758:../../Middlewares/Third_Party/LwIP/src/core/pbuf.c ****     if (ref == 0) {
 759:../../Middlewares/Third_Party/LwIP/src/core/pbuf.c ****       /* remember next pbuf in chain for next iteration */
 760:../../Middlewares/Third_Party/LwIP/src/core/pbuf.c ****       q = p->next;
 761:../../Middlewares/Third_Party/LwIP/src/core/pbuf.c ****       LWIP_DEBUGF( PBUF_DEBUG | LWIP_DBG_TRACE, ("pbuf_free: deallocating %p\n", (void *)p));
 762:../../Middlewares/Third_Party/LwIP/src/core/pbuf.c ****       alloc_src = pbuf_get_allocsrc(p);
 763:../../Middlewares/Third_Party/LwIP/src/core/pbuf.c **** #if LWIP_SUPPORT_CUSTOM_PBUF
 764:../../Middlewares/Third_Party/LwIP/src/core/pbuf.c ****       /* is this a custom pbuf? */
 765:../../Middlewares/Third_Party/LwIP/src/core/pbuf.c ****       if ((p->flags & PBUF_FLAG_IS_CUSTOM) != 0) {
 766:../../Middlewares/Third_Party/LwIP/src/core/pbuf.c ****         struct pbuf_custom *pc = (struct pbuf_custom *)p;
 767:../../Middlewares/Third_Party/LwIP/src/core/pbuf.c ****         LWIP_ASSERT("pc->custom_free_function != NULL", pc->custom_free_function != NULL);
 768:../../Middlewares/Third_Party/LwIP/src/core/pbuf.c ****         pc->custom_free_function(p);
 769:../../Middlewares/Third_Party/LwIP/src/core/pbuf.c ****       } else
 770:../../Middlewares/Third_Party/LwIP/src/core/pbuf.c **** #endif /* LWIP_SUPPORT_CUSTOM_PBUF */
 771:../../Middlewares/Third_Party/LwIP/src/core/pbuf.c ****       {
 772:../../Middlewares/Third_Party/LwIP/src/core/pbuf.c ****         /* is this a pbuf from the pool? */
 773:../../Middlewares/Third_Party/LwIP/src/core/pbuf.c ****         if (alloc_src == PBUF_TYPE_ALLOC_SRC_MASK_STD_MEMP_PBUF_POOL) {
 774:../../Middlewares/Third_Party/LwIP/src/core/pbuf.c ****           memp_free(MEMP_PBUF_POOL, p);
 775:../../Middlewares/Third_Party/LwIP/src/core/pbuf.c ****           /* is this a ROM or RAM referencing pbuf? */
 776:../../Middlewares/Third_Party/LwIP/src/core/pbuf.c ****         } else if (alloc_src == PBUF_TYPE_ALLOC_SRC_MASK_STD_MEMP_PBUF) {
 777:../../Middlewares/Third_Party/LwIP/src/core/pbuf.c ****           memp_free(MEMP_PBUF, p);
 778:../../Middlewares/Third_Party/LwIP/src/core/pbuf.c ****           /* type == PBUF_RAM */
 779:../../Middlewares/Third_Party/LwIP/src/core/pbuf.c ****         } else if (alloc_src == PBUF_TYPE_ALLOC_SRC_MASK_STD_HEAP) {
 780:../../Middlewares/Third_Party/LwIP/src/core/pbuf.c ****           mem_free(p);
 781:../../Middlewares/Third_Party/LwIP/src/core/pbuf.c ****         } else {
 782:../../Middlewares/Third_Party/LwIP/src/core/pbuf.c ****           /* @todo: support freeing other types */
 783:../../Middlewares/Third_Party/LwIP/src/core/pbuf.c ****           LWIP_ASSERT("invalid pbuf type", 0);
 784:../../Middlewares/Third_Party/LwIP/src/core/pbuf.c ****         }
 785:../../Middlewares/Third_Party/LwIP/src/core/pbuf.c ****       }
 786:../../Middlewares/Third_Party/LwIP/src/core/pbuf.c ****       count++;
 787:../../Middlewares/Third_Party/LwIP/src/core/pbuf.c ****       /* proceed to next pbuf */
 788:../../Middlewares/Third_Party/LwIP/src/core/pbuf.c ****       p = q;
 789:../../Middlewares/Third_Party/LwIP/src/core/pbuf.c ****       /* p->ref > 0, this pbuf is still referenced to */
 790:../../Middlewares/Third_Party/LwIP/src/core/pbuf.c ****       /* (and so the remaining pbufs in chain as well) */
 791:../../Middlewares/Third_Party/LwIP/src/core/pbuf.c ****     } else {
 792:../../Middlewares/Third_Party/LwIP/src/core/pbuf.c ****       LWIP_DEBUGF( PBUF_DEBUG | LWIP_DBG_TRACE, ("pbuf_free: %p has ref %"U16_F", ending here.\n", 
 793:../../Middlewares/Third_Party/LwIP/src/core/pbuf.c ****       /* stop walking through the chain */
 794:../../Middlewares/Third_Party/LwIP/src/core/pbuf.c ****       p = NULL;
 795:../../Middlewares/Third_Party/LwIP/src/core/pbuf.c ****     }
 796:../../Middlewares/Third_Party/LwIP/src/core/pbuf.c ****   }
 797:../../Middlewares/Third_Party/LwIP/src/core/pbuf.c ****   PERF_STOP("pbuf_free");
 798:../../Middlewares/Third_Party/LwIP/src/core/pbuf.c ****   /* return number of de-allocated pbufs */
 799:../../Middlewares/Third_Party/LwIP/src/core/pbuf.c ****   return count;
ARM GAS  /tmp/cc8sHRun.s 			page 17


 800:../../Middlewares/Third_Party/LwIP/src/core/pbuf.c **** }
 801:../../Middlewares/Third_Party/LwIP/src/core/pbuf.c **** 
 802:../../Middlewares/Third_Party/LwIP/src/core/pbuf.c **** /**
 803:../../Middlewares/Third_Party/LwIP/src/core/pbuf.c ****  * Count number of pbufs in a chain
 804:../../Middlewares/Third_Party/LwIP/src/core/pbuf.c ****  *
 805:../../Middlewares/Third_Party/LwIP/src/core/pbuf.c ****  * @param p first pbuf of chain
 806:../../Middlewares/Third_Party/LwIP/src/core/pbuf.c ****  * @return the number of pbufs in a chain
 807:../../Middlewares/Third_Party/LwIP/src/core/pbuf.c ****  */
 808:../../Middlewares/Third_Party/LwIP/src/core/pbuf.c **** u16_t
 809:../../Middlewares/Third_Party/LwIP/src/core/pbuf.c **** pbuf_clen(const struct pbuf *p)
 810:../../Middlewares/Third_Party/LwIP/src/core/pbuf.c **** {
 811:../../Middlewares/Third_Party/LwIP/src/core/pbuf.c ****   u16_t len;
 812:../../Middlewares/Third_Party/LwIP/src/core/pbuf.c **** 
 813:../../Middlewares/Third_Party/LwIP/src/core/pbuf.c ****   len = 0;
 814:../../Middlewares/Third_Party/LwIP/src/core/pbuf.c ****   while (p != NULL) {
 815:../../Middlewares/Third_Party/LwIP/src/core/pbuf.c ****     ++len;
 816:../../Middlewares/Third_Party/LwIP/src/core/pbuf.c ****     p = p->next;
 817:../../Middlewares/Third_Party/LwIP/src/core/pbuf.c ****   }
 818:../../Middlewares/Third_Party/LwIP/src/core/pbuf.c ****   return len;
 819:../../Middlewares/Third_Party/LwIP/src/core/pbuf.c **** }
 820:../../Middlewares/Third_Party/LwIP/src/core/pbuf.c **** 
 821:../../Middlewares/Third_Party/LwIP/src/core/pbuf.c **** /**
 822:../../Middlewares/Third_Party/LwIP/src/core/pbuf.c ****  * @ingroup pbuf
 823:../../Middlewares/Third_Party/LwIP/src/core/pbuf.c ****  * Increment the reference count of the pbuf.
 824:../../Middlewares/Third_Party/LwIP/src/core/pbuf.c ****  *
 825:../../Middlewares/Third_Party/LwIP/src/core/pbuf.c ****  * @param p pbuf to increase reference counter of
 826:../../Middlewares/Third_Party/LwIP/src/core/pbuf.c ****  *
 827:../../Middlewares/Third_Party/LwIP/src/core/pbuf.c ****  */
 828:../../Middlewares/Third_Party/LwIP/src/core/pbuf.c **** void
 829:../../Middlewares/Third_Party/LwIP/src/core/pbuf.c **** pbuf_ref(struct pbuf *p)
 830:../../Middlewares/Third_Party/LwIP/src/core/pbuf.c **** {
 831:../../Middlewares/Third_Party/LwIP/src/core/pbuf.c ****   /* pbuf given? */
 832:../../Middlewares/Third_Party/LwIP/src/core/pbuf.c ****   if (p != NULL) {
 833:../../Middlewares/Third_Party/LwIP/src/core/pbuf.c ****     SYS_ARCH_SET(p->ref, (LWIP_PBUF_REF_T)(p->ref + 1));
 834:../../Middlewares/Third_Party/LwIP/src/core/pbuf.c ****     LWIP_ASSERT("pbuf ref overflow", p->ref > 0);
 835:../../Middlewares/Third_Party/LwIP/src/core/pbuf.c ****   }
 836:../../Middlewares/Third_Party/LwIP/src/core/pbuf.c **** }
 837:../../Middlewares/Third_Party/LwIP/src/core/pbuf.c **** 
 838:../../Middlewares/Third_Party/LwIP/src/core/pbuf.c **** /**
 839:../../Middlewares/Third_Party/LwIP/src/core/pbuf.c ****  * @ingroup pbuf
 840:../../Middlewares/Third_Party/LwIP/src/core/pbuf.c ****  * Concatenate two pbufs (each may be a pbuf chain) and take over
 841:../../Middlewares/Third_Party/LwIP/src/core/pbuf.c ****  * the caller's reference of the tail pbuf.
 842:../../Middlewares/Third_Party/LwIP/src/core/pbuf.c ****  *
 843:../../Middlewares/Third_Party/LwIP/src/core/pbuf.c ****  * @note The caller MAY NOT reference the tail pbuf afterwards.
 844:../../Middlewares/Third_Party/LwIP/src/core/pbuf.c ****  * Use pbuf_chain() for that purpose.
 845:../../Middlewares/Third_Party/LwIP/src/core/pbuf.c ****  *
 846:../../Middlewares/Third_Party/LwIP/src/core/pbuf.c ****  * This function explicitly does not check for tot_len overflow to prevent
 847:../../Middlewares/Third_Party/LwIP/src/core/pbuf.c ****  * failing to queue too long pbufs. This can produce invalid pbufs, so
 848:../../Middlewares/Third_Party/LwIP/src/core/pbuf.c ****  * handle with care!
 849:../../Middlewares/Third_Party/LwIP/src/core/pbuf.c ****  *
 850:../../Middlewares/Third_Party/LwIP/src/core/pbuf.c ****  * @see pbuf_chain()
 851:../../Middlewares/Third_Party/LwIP/src/core/pbuf.c ****  */
 852:../../Middlewares/Third_Party/LwIP/src/core/pbuf.c **** void
 853:../../Middlewares/Third_Party/LwIP/src/core/pbuf.c **** pbuf_cat(struct pbuf *h, struct pbuf *t)
 854:../../Middlewares/Third_Party/LwIP/src/core/pbuf.c **** {
 855:../../Middlewares/Third_Party/LwIP/src/core/pbuf.c ****   struct pbuf *p;
 856:../../Middlewares/Third_Party/LwIP/src/core/pbuf.c **** 
ARM GAS  /tmp/cc8sHRun.s 			page 18


 857:../../Middlewares/Third_Party/LwIP/src/core/pbuf.c ****   LWIP_ERROR("(h != NULL) && (t != NULL) (programmer violates API)",
 858:../../Middlewares/Third_Party/LwIP/src/core/pbuf.c ****              ((h != NULL) && (t != NULL)), return;);
 859:../../Middlewares/Third_Party/LwIP/src/core/pbuf.c **** 
 860:../../Middlewares/Third_Party/LwIP/src/core/pbuf.c ****   /* proceed to last pbuf of chain */
 861:../../Middlewares/Third_Party/LwIP/src/core/pbuf.c ****   for (p = h; p->next != NULL; p = p->next) {
 862:../../Middlewares/Third_Party/LwIP/src/core/pbuf.c ****     /* add total length of second chain to all totals of first chain */
 863:../../Middlewares/Third_Party/LwIP/src/core/pbuf.c ****     p->tot_len = (u16_t)(p->tot_len + t->tot_len);
 864:../../Middlewares/Third_Party/LwIP/src/core/pbuf.c ****   }
 865:../../Middlewares/Third_Party/LwIP/src/core/pbuf.c ****   /* { p is last pbuf of first h chain, p->next == NULL } */
 866:../../Middlewares/Third_Party/LwIP/src/core/pbuf.c ****   LWIP_ASSERT("p->tot_len == p->len (of last pbuf in chain)", p->tot_len == p->len);
 867:../../Middlewares/Third_Party/LwIP/src/core/pbuf.c ****   LWIP_ASSERT("p->next == NULL", p->next == NULL);
 868:../../Middlewares/Third_Party/LwIP/src/core/pbuf.c ****   /* add total length of second chain to last pbuf total of first chain */
 869:../../Middlewares/Third_Party/LwIP/src/core/pbuf.c ****   p->tot_len = (u16_t)(p->tot_len + t->tot_len);
 870:../../Middlewares/Third_Party/LwIP/src/core/pbuf.c ****   /* chain last pbuf of head (p) with first of tail (t) */
 871:../../Middlewares/Third_Party/LwIP/src/core/pbuf.c ****   p->next = t;
 872:../../Middlewares/Third_Party/LwIP/src/core/pbuf.c ****   /* p->next now references t, but the caller will drop its reference to t,
 873:../../Middlewares/Third_Party/LwIP/src/core/pbuf.c ****    * so netto there is no change to the reference count of t.
 874:../../Middlewares/Third_Party/LwIP/src/core/pbuf.c ****    */
 875:../../Middlewares/Third_Party/LwIP/src/core/pbuf.c **** }
 876:../../Middlewares/Third_Party/LwIP/src/core/pbuf.c **** 
 877:../../Middlewares/Third_Party/LwIP/src/core/pbuf.c **** /**
 878:../../Middlewares/Third_Party/LwIP/src/core/pbuf.c ****  * @ingroup pbuf
 879:../../Middlewares/Third_Party/LwIP/src/core/pbuf.c ****  * Chain two pbufs (or pbuf chains) together.
 880:../../Middlewares/Third_Party/LwIP/src/core/pbuf.c ****  *
 881:../../Middlewares/Third_Party/LwIP/src/core/pbuf.c ****  * The caller MUST call pbuf_free(t) once it has stopped
 882:../../Middlewares/Third_Party/LwIP/src/core/pbuf.c ****  * using it. Use pbuf_cat() instead if you no longer use t.
 883:../../Middlewares/Third_Party/LwIP/src/core/pbuf.c ****  *
 884:../../Middlewares/Third_Party/LwIP/src/core/pbuf.c ****  * @param h head pbuf (chain)
 885:../../Middlewares/Third_Party/LwIP/src/core/pbuf.c ****  * @param t tail pbuf (chain)
 886:../../Middlewares/Third_Party/LwIP/src/core/pbuf.c ****  * @note The pbufs MUST belong to the same packet.
 887:../../Middlewares/Third_Party/LwIP/src/core/pbuf.c ****  * @note MAY NOT be called on a packet queue.
 888:../../Middlewares/Third_Party/LwIP/src/core/pbuf.c ****  *
 889:../../Middlewares/Third_Party/LwIP/src/core/pbuf.c ****  * The ->tot_len fields of all pbufs of the head chain are adjusted.
 890:../../Middlewares/Third_Party/LwIP/src/core/pbuf.c ****  * The ->next field of the last pbuf of the head chain is adjusted.
 891:../../Middlewares/Third_Party/LwIP/src/core/pbuf.c ****  * The ->ref field of the first pbuf of the tail chain is adjusted.
 892:../../Middlewares/Third_Party/LwIP/src/core/pbuf.c ****  *
 893:../../Middlewares/Third_Party/LwIP/src/core/pbuf.c ****  */
 894:../../Middlewares/Third_Party/LwIP/src/core/pbuf.c **** void
 895:../../Middlewares/Third_Party/LwIP/src/core/pbuf.c **** pbuf_chain(struct pbuf *h, struct pbuf *t)
 896:../../Middlewares/Third_Party/LwIP/src/core/pbuf.c **** {
 897:../../Middlewares/Third_Party/LwIP/src/core/pbuf.c ****   pbuf_cat(h, t);
 898:../../Middlewares/Third_Party/LwIP/src/core/pbuf.c ****   /* t is now referenced by h */
 899:../../Middlewares/Third_Party/LwIP/src/core/pbuf.c ****   pbuf_ref(t);
 900:../../Middlewares/Third_Party/LwIP/src/core/pbuf.c ****   LWIP_DEBUGF(PBUF_DEBUG | LWIP_DBG_TRACE, ("pbuf_chain: %p references %p\n", (void *)h, (void *)t)
 901:../../Middlewares/Third_Party/LwIP/src/core/pbuf.c **** }
 902:../../Middlewares/Third_Party/LwIP/src/core/pbuf.c **** 
 903:../../Middlewares/Third_Party/LwIP/src/core/pbuf.c **** /**
 904:../../Middlewares/Third_Party/LwIP/src/core/pbuf.c ****  * Dechains the first pbuf from its succeeding pbufs in the chain.
 905:../../Middlewares/Third_Party/LwIP/src/core/pbuf.c ****  *
 906:../../Middlewares/Third_Party/LwIP/src/core/pbuf.c ****  * Makes p->tot_len field equal to p->len.
 907:../../Middlewares/Third_Party/LwIP/src/core/pbuf.c ****  * @param p pbuf to dechain
 908:../../Middlewares/Third_Party/LwIP/src/core/pbuf.c ****  * @return remainder of the pbuf chain, or NULL if it was de-allocated.
 909:../../Middlewares/Third_Party/LwIP/src/core/pbuf.c ****  * @note May not be called on a packet queue.
 910:../../Middlewares/Third_Party/LwIP/src/core/pbuf.c ****  */
 911:../../Middlewares/Third_Party/LwIP/src/core/pbuf.c **** struct pbuf *
 912:../../Middlewares/Third_Party/LwIP/src/core/pbuf.c **** pbuf_dechain(struct pbuf *p)
 913:../../Middlewares/Third_Party/LwIP/src/core/pbuf.c **** {
ARM GAS  /tmp/cc8sHRun.s 			page 19


 914:../../Middlewares/Third_Party/LwIP/src/core/pbuf.c ****   struct pbuf *q;
 915:../../Middlewares/Third_Party/LwIP/src/core/pbuf.c ****   u8_t tail_gone = 1;
 916:../../Middlewares/Third_Party/LwIP/src/core/pbuf.c ****   /* tail */
 917:../../Middlewares/Third_Party/LwIP/src/core/pbuf.c ****   q = p->next;
 918:../../Middlewares/Third_Party/LwIP/src/core/pbuf.c ****   /* pbuf has successor in chain? */
 919:../../Middlewares/Third_Party/LwIP/src/core/pbuf.c ****   if (q != NULL) {
 920:../../Middlewares/Third_Party/LwIP/src/core/pbuf.c ****     /* assert tot_len invariant: (p->tot_len == p->len + (p->next? p->next->tot_len: 0) */
 921:../../Middlewares/Third_Party/LwIP/src/core/pbuf.c ****     LWIP_ASSERT("p->tot_len == p->len + q->tot_len", q->tot_len == p->tot_len - p->len);
 922:../../Middlewares/Third_Party/LwIP/src/core/pbuf.c ****     /* enforce invariant if assertion is disabled */
 923:../../Middlewares/Third_Party/LwIP/src/core/pbuf.c ****     q->tot_len = (u16_t)(p->tot_len - p->len);
 924:../../Middlewares/Third_Party/LwIP/src/core/pbuf.c ****     /* decouple pbuf from remainder */
 925:../../Middlewares/Third_Party/LwIP/src/core/pbuf.c ****     p->next = NULL;
 926:../../Middlewares/Third_Party/LwIP/src/core/pbuf.c ****     /* total length of pbuf p is its own length only */
 927:../../Middlewares/Third_Party/LwIP/src/core/pbuf.c ****     p->tot_len = p->len;
 928:../../Middlewares/Third_Party/LwIP/src/core/pbuf.c ****     /* q is no longer referenced by p, free it */
 929:../../Middlewares/Third_Party/LwIP/src/core/pbuf.c ****     LWIP_DEBUGF(PBUF_DEBUG | LWIP_DBG_TRACE, ("pbuf_dechain: unreferencing %p\n", (void *)q));
 930:../../Middlewares/Third_Party/LwIP/src/core/pbuf.c ****     tail_gone = pbuf_free(q);
 931:../../Middlewares/Third_Party/LwIP/src/core/pbuf.c ****     if (tail_gone > 0) {
 932:../../Middlewares/Third_Party/LwIP/src/core/pbuf.c ****       LWIP_DEBUGF(PBUF_DEBUG | LWIP_DBG_TRACE,
 933:../../Middlewares/Third_Party/LwIP/src/core/pbuf.c ****                   ("pbuf_dechain: deallocated %p (as it is no longer referenced)\n", (void *)q));
 934:../../Middlewares/Third_Party/LwIP/src/core/pbuf.c ****     }
 935:../../Middlewares/Third_Party/LwIP/src/core/pbuf.c ****     /* return remaining tail or NULL if deallocated */
 936:../../Middlewares/Third_Party/LwIP/src/core/pbuf.c ****   }
 937:../../Middlewares/Third_Party/LwIP/src/core/pbuf.c ****   /* assert tot_len invariant: (p->tot_len == p->len + (p->next? p->next->tot_len: 0) */
 938:../../Middlewares/Third_Party/LwIP/src/core/pbuf.c ****   LWIP_ASSERT("p->tot_len == p->len", p->tot_len == p->len);
 939:../../Middlewares/Third_Party/LwIP/src/core/pbuf.c ****   return ((tail_gone > 0) ? NULL : q);
 940:../../Middlewares/Third_Party/LwIP/src/core/pbuf.c **** }
 941:../../Middlewares/Third_Party/LwIP/src/core/pbuf.c **** 
 942:../../Middlewares/Third_Party/LwIP/src/core/pbuf.c **** /**
 943:../../Middlewares/Third_Party/LwIP/src/core/pbuf.c ****  * @ingroup pbuf
 944:../../Middlewares/Third_Party/LwIP/src/core/pbuf.c ****  * Create PBUF_RAM copies of pbufs.
 945:../../Middlewares/Third_Party/LwIP/src/core/pbuf.c ****  *
 946:../../Middlewares/Third_Party/LwIP/src/core/pbuf.c ****  * Used to queue packets on behalf of the lwIP stack, such as
 947:../../Middlewares/Third_Party/LwIP/src/core/pbuf.c ****  * ARP based queueing.
 948:../../Middlewares/Third_Party/LwIP/src/core/pbuf.c ****  *
 949:../../Middlewares/Third_Party/LwIP/src/core/pbuf.c ****  * @note You MUST explicitly use p = pbuf_take(p);
 950:../../Middlewares/Third_Party/LwIP/src/core/pbuf.c ****  *
 951:../../Middlewares/Third_Party/LwIP/src/core/pbuf.c ****  * @note Only one packet is copied, no packet queue!
 952:../../Middlewares/Third_Party/LwIP/src/core/pbuf.c ****  *
 953:../../Middlewares/Third_Party/LwIP/src/core/pbuf.c ****  * @param p_to pbuf destination of the copy
 954:../../Middlewares/Third_Party/LwIP/src/core/pbuf.c ****  * @param p_from pbuf source of the copy
 955:../../Middlewares/Third_Party/LwIP/src/core/pbuf.c ****  *
 956:../../Middlewares/Third_Party/LwIP/src/core/pbuf.c ****  * @return ERR_OK if pbuf was copied
 957:../../Middlewares/Third_Party/LwIP/src/core/pbuf.c ****  *         ERR_ARG if one of the pbufs is NULL or p_to is not big
 958:../../Middlewares/Third_Party/LwIP/src/core/pbuf.c ****  *                 enough to hold p_from
 959:../../Middlewares/Third_Party/LwIP/src/core/pbuf.c ****  */
 960:../../Middlewares/Third_Party/LwIP/src/core/pbuf.c **** err_t
 961:../../Middlewares/Third_Party/LwIP/src/core/pbuf.c **** pbuf_copy(struct pbuf *p_to, const struct pbuf *p_from)
 962:../../Middlewares/Third_Party/LwIP/src/core/pbuf.c **** {
 963:../../Middlewares/Third_Party/LwIP/src/core/pbuf.c ****   size_t offset_to = 0, offset_from = 0, len;
 964:../../Middlewares/Third_Party/LwIP/src/core/pbuf.c **** 
 965:../../Middlewares/Third_Party/LwIP/src/core/pbuf.c ****   LWIP_DEBUGF(PBUF_DEBUG | LWIP_DBG_TRACE, ("pbuf_copy(%p, %p)\n",
 966:../../Middlewares/Third_Party/LwIP/src/core/pbuf.c ****               (const void *)p_to, (const void *)p_from));
 967:../../Middlewares/Third_Party/LwIP/src/core/pbuf.c **** 
 968:../../Middlewares/Third_Party/LwIP/src/core/pbuf.c ****   /* is the target big enough to hold the source? */
 969:../../Middlewares/Third_Party/LwIP/src/core/pbuf.c ****   LWIP_ERROR("pbuf_copy: target not big enough to hold source", ((p_to != NULL) &&
 970:../../Middlewares/Third_Party/LwIP/src/core/pbuf.c ****              (p_from != NULL) && (p_to->tot_len >= p_from->tot_len)), return ERR_ARG;);
ARM GAS  /tmp/cc8sHRun.s 			page 20


 971:../../Middlewares/Third_Party/LwIP/src/core/pbuf.c **** 
 972:../../Middlewares/Third_Party/LwIP/src/core/pbuf.c ****   /* iterate through pbuf chain */
 973:../../Middlewares/Third_Party/LwIP/src/core/pbuf.c ****   do {
 974:../../Middlewares/Third_Party/LwIP/src/core/pbuf.c ****     /* copy one part of the original chain */
 975:../../Middlewares/Third_Party/LwIP/src/core/pbuf.c ****     if ((p_to->len - offset_to) >= (p_from->len - offset_from)) {
 976:../../Middlewares/Third_Party/LwIP/src/core/pbuf.c ****       /* complete current p_from fits into current p_to */
 977:../../Middlewares/Third_Party/LwIP/src/core/pbuf.c ****       len = p_from->len - offset_from;
 978:../../Middlewares/Third_Party/LwIP/src/core/pbuf.c ****     } else {
 979:../../Middlewares/Third_Party/LwIP/src/core/pbuf.c ****       /* current p_from does not fit into current p_to */
 980:../../Middlewares/Third_Party/LwIP/src/core/pbuf.c ****       len = p_to->len - offset_to;
 981:../../Middlewares/Third_Party/LwIP/src/core/pbuf.c ****     }
 982:../../Middlewares/Third_Party/LwIP/src/core/pbuf.c ****     MEMCPY((u8_t *)p_to->payload + offset_to, (u8_t *)p_from->payload + offset_from, len);
 983:../../Middlewares/Third_Party/LwIP/src/core/pbuf.c ****     offset_to += len;
 984:../../Middlewares/Third_Party/LwIP/src/core/pbuf.c ****     offset_from += len;
 985:../../Middlewares/Third_Party/LwIP/src/core/pbuf.c ****     LWIP_ASSERT("offset_to <= p_to->len", offset_to <= p_to->len);
 986:../../Middlewares/Third_Party/LwIP/src/core/pbuf.c ****     LWIP_ASSERT("offset_from <= p_from->len", offset_from <= p_from->len);
 987:../../Middlewares/Third_Party/LwIP/src/core/pbuf.c ****     if (offset_from >= p_from->len) {
 988:../../Middlewares/Third_Party/LwIP/src/core/pbuf.c ****       /* on to next p_from (if any) */
 989:../../Middlewares/Third_Party/LwIP/src/core/pbuf.c ****       offset_from = 0;
 990:../../Middlewares/Third_Party/LwIP/src/core/pbuf.c ****       p_from = p_from->next;
 991:../../Middlewares/Third_Party/LwIP/src/core/pbuf.c ****     }
 992:../../Middlewares/Third_Party/LwIP/src/core/pbuf.c ****     if (offset_to == p_to->len) {
 993:../../Middlewares/Third_Party/LwIP/src/core/pbuf.c ****       /* on to next p_to (if any) */
 994:../../Middlewares/Third_Party/LwIP/src/core/pbuf.c ****       offset_to = 0;
 995:../../Middlewares/Third_Party/LwIP/src/core/pbuf.c ****       p_to = p_to->next;
 996:../../Middlewares/Third_Party/LwIP/src/core/pbuf.c ****       LWIP_ERROR("p_to != NULL", (p_to != NULL) || (p_from == NULL), return ERR_ARG;);
 997:../../Middlewares/Third_Party/LwIP/src/core/pbuf.c ****     }
 998:../../Middlewares/Third_Party/LwIP/src/core/pbuf.c **** 
 999:../../Middlewares/Third_Party/LwIP/src/core/pbuf.c ****     if ((p_from != NULL) && (p_from->len == p_from->tot_len)) {
1000:../../Middlewares/Third_Party/LwIP/src/core/pbuf.c ****       /* don't copy more than one packet! */
1001:../../Middlewares/Third_Party/LwIP/src/core/pbuf.c ****       LWIP_ERROR("pbuf_copy() does not allow packet queues!",
1002:../../Middlewares/Third_Party/LwIP/src/core/pbuf.c ****                  (p_from->next == NULL), return ERR_VAL;);
1003:../../Middlewares/Third_Party/LwIP/src/core/pbuf.c ****     }
1004:../../Middlewares/Third_Party/LwIP/src/core/pbuf.c ****     if ((p_to != NULL) && (p_to->len == p_to->tot_len)) {
1005:../../Middlewares/Third_Party/LwIP/src/core/pbuf.c ****       /* don't copy more than one packet! */
1006:../../Middlewares/Third_Party/LwIP/src/core/pbuf.c ****       LWIP_ERROR("pbuf_copy() does not allow packet queues!",
1007:../../Middlewares/Third_Party/LwIP/src/core/pbuf.c ****                  (p_to->next == NULL), return ERR_VAL;);
1008:../../Middlewares/Third_Party/LwIP/src/core/pbuf.c ****     }
1009:../../Middlewares/Third_Party/LwIP/src/core/pbuf.c ****   } while (p_from);
1010:../../Middlewares/Third_Party/LwIP/src/core/pbuf.c ****   LWIP_DEBUGF(PBUF_DEBUG | LWIP_DBG_TRACE, ("pbuf_copy: end of chain reached.\n"));
1011:../../Middlewares/Third_Party/LwIP/src/core/pbuf.c ****   return ERR_OK;
1012:../../Middlewares/Third_Party/LwIP/src/core/pbuf.c **** }
1013:../../Middlewares/Third_Party/LwIP/src/core/pbuf.c **** 
1014:../../Middlewares/Third_Party/LwIP/src/core/pbuf.c **** /**
1015:../../Middlewares/Third_Party/LwIP/src/core/pbuf.c ****  * @ingroup pbuf
1016:../../Middlewares/Third_Party/LwIP/src/core/pbuf.c ****  * Copy (part of) the contents of a packet buffer
1017:../../Middlewares/Third_Party/LwIP/src/core/pbuf.c ****  * to an application supplied buffer.
1018:../../Middlewares/Third_Party/LwIP/src/core/pbuf.c ****  *
1019:../../Middlewares/Third_Party/LwIP/src/core/pbuf.c ****  * @param buf the pbuf from which to copy data
1020:../../Middlewares/Third_Party/LwIP/src/core/pbuf.c ****  * @param dataptr the application supplied buffer
1021:../../Middlewares/Third_Party/LwIP/src/core/pbuf.c ****  * @param len length of data to copy (dataptr must be big enough). No more
1022:../../Middlewares/Third_Party/LwIP/src/core/pbuf.c ****  * than buf->tot_len will be copied, irrespective of len
1023:../../Middlewares/Third_Party/LwIP/src/core/pbuf.c ****  * @param offset offset into the packet buffer from where to begin copying len bytes
1024:../../Middlewares/Third_Party/LwIP/src/core/pbuf.c ****  * @return the number of bytes copied, or 0 on failure
1025:../../Middlewares/Third_Party/LwIP/src/core/pbuf.c ****  */
1026:../../Middlewares/Third_Party/LwIP/src/core/pbuf.c **** u16_t
1027:../../Middlewares/Third_Party/LwIP/src/core/pbuf.c **** pbuf_copy_partial(const struct pbuf *buf, void *dataptr, u16_t len, u16_t offset)
ARM GAS  /tmp/cc8sHRun.s 			page 21


1028:../../Middlewares/Third_Party/LwIP/src/core/pbuf.c **** {
1029:../../Middlewares/Third_Party/LwIP/src/core/pbuf.c ****   const struct pbuf *p;
1030:../../Middlewares/Third_Party/LwIP/src/core/pbuf.c ****   u16_t left = 0;
1031:../../Middlewares/Third_Party/LwIP/src/core/pbuf.c ****   u16_t buf_copy_len;
1032:../../Middlewares/Third_Party/LwIP/src/core/pbuf.c ****   u16_t copied_total = 0;
1033:../../Middlewares/Third_Party/LwIP/src/core/pbuf.c **** 
1034:../../Middlewares/Third_Party/LwIP/src/core/pbuf.c ****   LWIP_ERROR("pbuf_copy_partial: invalid buf", (buf != NULL), return 0;);
1035:../../Middlewares/Third_Party/LwIP/src/core/pbuf.c ****   LWIP_ERROR("pbuf_copy_partial: invalid dataptr", (dataptr != NULL), return 0;);
1036:../../Middlewares/Third_Party/LwIP/src/core/pbuf.c **** 
1037:../../Middlewares/Third_Party/LwIP/src/core/pbuf.c ****   /* Note some systems use byte copy if dataptr or one of the pbuf payload pointers are unaligned. 
1038:../../Middlewares/Third_Party/LwIP/src/core/pbuf.c ****   for (p = buf; len != 0 && p != NULL; p = p->next) {
1039:../../Middlewares/Third_Party/LwIP/src/core/pbuf.c ****     if ((offset != 0) && (offset >= p->len)) {
1040:../../Middlewares/Third_Party/LwIP/src/core/pbuf.c ****       /* don't copy from this buffer -> on to the next */
1041:../../Middlewares/Third_Party/LwIP/src/core/pbuf.c ****       offset = (u16_t)(offset - p->len);
1042:../../Middlewares/Third_Party/LwIP/src/core/pbuf.c ****     } else {
1043:../../Middlewares/Third_Party/LwIP/src/core/pbuf.c ****       /* copy from this buffer. maybe only partially. */
1044:../../Middlewares/Third_Party/LwIP/src/core/pbuf.c ****       buf_copy_len = (u16_t)(p->len - offset);
1045:../../Middlewares/Third_Party/LwIP/src/core/pbuf.c ****       if (buf_copy_len > len) {
1046:../../Middlewares/Third_Party/LwIP/src/core/pbuf.c ****         buf_copy_len = len;
1047:../../Middlewares/Third_Party/LwIP/src/core/pbuf.c ****       }
1048:../../Middlewares/Third_Party/LwIP/src/core/pbuf.c ****       /* copy the necessary parts of the buffer */
1049:../../Middlewares/Third_Party/LwIP/src/core/pbuf.c ****       MEMCPY(&((char *)dataptr)[left], &((char *)p->payload)[offset], buf_copy_len);
1050:../../Middlewares/Third_Party/LwIP/src/core/pbuf.c ****       copied_total = (u16_t)(copied_total + buf_copy_len);
1051:../../Middlewares/Third_Party/LwIP/src/core/pbuf.c ****       left = (u16_t)(left + buf_copy_len);
1052:../../Middlewares/Third_Party/LwIP/src/core/pbuf.c ****       len = (u16_t)(len - buf_copy_len);
1053:../../Middlewares/Third_Party/LwIP/src/core/pbuf.c ****       offset = 0;
1054:../../Middlewares/Third_Party/LwIP/src/core/pbuf.c ****     }
1055:../../Middlewares/Third_Party/LwIP/src/core/pbuf.c ****   }
1056:../../Middlewares/Third_Party/LwIP/src/core/pbuf.c ****   return copied_total;
1057:../../Middlewares/Third_Party/LwIP/src/core/pbuf.c **** }
1058:../../Middlewares/Third_Party/LwIP/src/core/pbuf.c **** 
1059:../../Middlewares/Third_Party/LwIP/src/core/pbuf.c **** /**
1060:../../Middlewares/Third_Party/LwIP/src/core/pbuf.c ****  * @ingroup pbuf
1061:../../Middlewares/Third_Party/LwIP/src/core/pbuf.c ****  * Get part of a pbuf's payload as contiguous memory. The returned memory is
1062:../../Middlewares/Third_Party/LwIP/src/core/pbuf.c ****  * either a pointer into the pbuf's payload or, if split over multiple pbufs,
1063:../../Middlewares/Third_Party/LwIP/src/core/pbuf.c ****  * a copy into the user-supplied buffer.
1064:../../Middlewares/Third_Party/LwIP/src/core/pbuf.c ****  *
1065:../../Middlewares/Third_Party/LwIP/src/core/pbuf.c ****  * @param p the pbuf from which to copy data
1066:../../Middlewares/Third_Party/LwIP/src/core/pbuf.c ****  * @param buffer the application supplied buffer
1067:../../Middlewares/Third_Party/LwIP/src/core/pbuf.c ****  * @param bufsize size of the application supplied buffer
1068:../../Middlewares/Third_Party/LwIP/src/core/pbuf.c ****  * @param len length of data to copy (dataptr must be big enough). No more
1069:../../Middlewares/Third_Party/LwIP/src/core/pbuf.c ****  * than buf->tot_len will be copied, irrespective of len
1070:../../Middlewares/Third_Party/LwIP/src/core/pbuf.c ****  * @param offset offset into the packet buffer from where to begin copying len bytes
1071:../../Middlewares/Third_Party/LwIP/src/core/pbuf.c ****  * @return the number of bytes copied, or 0 on failure
1072:../../Middlewares/Third_Party/LwIP/src/core/pbuf.c ****  */
1073:../../Middlewares/Third_Party/LwIP/src/core/pbuf.c **** void *
1074:../../Middlewares/Third_Party/LwIP/src/core/pbuf.c **** pbuf_get_contiguous(const struct pbuf *p, void *buffer, size_t bufsize, u16_t len, u16_t offset)
1075:../../Middlewares/Third_Party/LwIP/src/core/pbuf.c **** {
1076:../../Middlewares/Third_Party/LwIP/src/core/pbuf.c ****   const struct pbuf *q;
1077:../../Middlewares/Third_Party/LwIP/src/core/pbuf.c ****   u16_t out_offset;
1078:../../Middlewares/Third_Party/LwIP/src/core/pbuf.c **** 
1079:../../Middlewares/Third_Party/LwIP/src/core/pbuf.c ****   LWIP_ERROR("pbuf_get_contiguous: invalid buf", (p != NULL), return NULL;);
1080:../../Middlewares/Third_Party/LwIP/src/core/pbuf.c ****   LWIP_ERROR("pbuf_get_contiguous: invalid dataptr", (buffer != NULL), return NULL;);
1081:../../Middlewares/Third_Party/LwIP/src/core/pbuf.c ****   LWIP_ERROR("pbuf_get_contiguous: invalid dataptr", (bufsize >= len), return NULL;);
1082:../../Middlewares/Third_Party/LwIP/src/core/pbuf.c **** 
1083:../../Middlewares/Third_Party/LwIP/src/core/pbuf.c ****   q = pbuf_skip_const(p, offset, &out_offset);
1084:../../Middlewares/Third_Party/LwIP/src/core/pbuf.c ****   if (q != NULL) {
ARM GAS  /tmp/cc8sHRun.s 			page 22


1085:../../Middlewares/Third_Party/LwIP/src/core/pbuf.c ****     if (q->len >= (out_offset + len)) {
1086:../../Middlewares/Third_Party/LwIP/src/core/pbuf.c ****       /* all data in this pbuf, return zero-copy */
1087:../../Middlewares/Third_Party/LwIP/src/core/pbuf.c ****       return (u8_t *)q->payload + out_offset;
1088:../../Middlewares/Third_Party/LwIP/src/core/pbuf.c ****     }
1089:../../Middlewares/Third_Party/LwIP/src/core/pbuf.c ****     /* need to copy */
1090:../../Middlewares/Third_Party/LwIP/src/core/pbuf.c ****     if (pbuf_copy_partial(q, buffer, len, out_offset) != len) {
1091:../../Middlewares/Third_Party/LwIP/src/core/pbuf.c ****       /* copying failed: pbuf is too short */
1092:../../Middlewares/Third_Party/LwIP/src/core/pbuf.c ****       return NULL;
1093:../../Middlewares/Third_Party/LwIP/src/core/pbuf.c ****     }
1094:../../Middlewares/Third_Party/LwIP/src/core/pbuf.c ****     return buffer;
1095:../../Middlewares/Third_Party/LwIP/src/core/pbuf.c ****   }
1096:../../Middlewares/Third_Party/LwIP/src/core/pbuf.c ****   /* pbuf is too short (offset does not fit in) */
1097:../../Middlewares/Third_Party/LwIP/src/core/pbuf.c ****   return NULL;
1098:../../Middlewares/Third_Party/LwIP/src/core/pbuf.c **** }
1099:../../Middlewares/Third_Party/LwIP/src/core/pbuf.c **** 
1100:../../Middlewares/Third_Party/LwIP/src/core/pbuf.c **** #if LWIP_TCP && TCP_QUEUE_OOSEQ && LWIP_WND_SCALE
1101:../../Middlewares/Third_Party/LwIP/src/core/pbuf.c **** /**
1102:../../Middlewares/Third_Party/LwIP/src/core/pbuf.c ****  * This method modifies a 'pbuf chain', so that its total length is
1103:../../Middlewares/Third_Party/LwIP/src/core/pbuf.c ****  * smaller than 64K. The remainder of the original pbuf chain is stored
1104:../../Middlewares/Third_Party/LwIP/src/core/pbuf.c ****  * in *rest.
1105:../../Middlewares/Third_Party/LwIP/src/core/pbuf.c ****  * This function never creates new pbufs, but splits an existing chain
1106:../../Middlewares/Third_Party/LwIP/src/core/pbuf.c ****  * in two parts. The tot_len of the modified packet queue will likely be
1107:../../Middlewares/Third_Party/LwIP/src/core/pbuf.c ****  * smaller than 64K.
1108:../../Middlewares/Third_Party/LwIP/src/core/pbuf.c ****  * 'packet queues' are not supported by this function.
1109:../../Middlewares/Third_Party/LwIP/src/core/pbuf.c ****  *
1110:../../Middlewares/Third_Party/LwIP/src/core/pbuf.c ****  * @param p the pbuf queue to be split
1111:../../Middlewares/Third_Party/LwIP/src/core/pbuf.c ****  * @param rest pointer to store the remainder (after the first 64K)
1112:../../Middlewares/Third_Party/LwIP/src/core/pbuf.c ****  */
1113:../../Middlewares/Third_Party/LwIP/src/core/pbuf.c **** void pbuf_split_64k(struct pbuf *p, struct pbuf **rest)
1114:../../Middlewares/Third_Party/LwIP/src/core/pbuf.c **** {
1115:../../Middlewares/Third_Party/LwIP/src/core/pbuf.c ****   *rest = NULL;
1116:../../Middlewares/Third_Party/LwIP/src/core/pbuf.c ****   if ((p != NULL) && (p->next != NULL)) {
1117:../../Middlewares/Third_Party/LwIP/src/core/pbuf.c ****     u16_t tot_len_front = p->len;
1118:../../Middlewares/Third_Party/LwIP/src/core/pbuf.c ****     struct pbuf *i = p;
1119:../../Middlewares/Third_Party/LwIP/src/core/pbuf.c ****     struct pbuf *r = p->next;
1120:../../Middlewares/Third_Party/LwIP/src/core/pbuf.c **** 
1121:../../Middlewares/Third_Party/LwIP/src/core/pbuf.c ****     /* continue until the total length (summed up as u16_t) overflows */
1122:../../Middlewares/Third_Party/LwIP/src/core/pbuf.c ****     while ((r != NULL) && ((u16_t)(tot_len_front + r->len) >= tot_len_front)) {
1123:../../Middlewares/Third_Party/LwIP/src/core/pbuf.c ****       tot_len_front = (u16_t)(tot_len_front + r->len);
1124:../../Middlewares/Third_Party/LwIP/src/core/pbuf.c ****       i = r;
1125:../../Middlewares/Third_Party/LwIP/src/core/pbuf.c ****       r = r->next;
1126:../../Middlewares/Third_Party/LwIP/src/core/pbuf.c ****     }
1127:../../Middlewares/Third_Party/LwIP/src/core/pbuf.c ****     /* i now points to last packet of the first segment. Set next
1128:../../Middlewares/Third_Party/LwIP/src/core/pbuf.c ****        pointer to NULL */
1129:../../Middlewares/Third_Party/LwIP/src/core/pbuf.c ****     i->next = NULL;
1130:../../Middlewares/Third_Party/LwIP/src/core/pbuf.c **** 
1131:../../Middlewares/Third_Party/LwIP/src/core/pbuf.c ****     if (r != NULL) {
1132:../../Middlewares/Third_Party/LwIP/src/core/pbuf.c ****       /* Update the tot_len field in the first part */
1133:../../Middlewares/Third_Party/LwIP/src/core/pbuf.c ****       for (i = p; i != NULL; i = i->next) {
1134:../../Middlewares/Third_Party/LwIP/src/core/pbuf.c ****         i->tot_len = (u16_t)(i->tot_len - r->tot_len);
1135:../../Middlewares/Third_Party/LwIP/src/core/pbuf.c ****         LWIP_ASSERT("tot_len/len mismatch in last pbuf",
1136:../../Middlewares/Third_Party/LwIP/src/core/pbuf.c ****                     (i->next != NULL) || (i->tot_len == i->len));
1137:../../Middlewares/Third_Party/LwIP/src/core/pbuf.c ****       }
1138:../../Middlewares/Third_Party/LwIP/src/core/pbuf.c ****       if (p->flags & PBUF_FLAG_TCP_FIN) {
1139:../../Middlewares/Third_Party/LwIP/src/core/pbuf.c ****         r->flags |= PBUF_FLAG_TCP_FIN;
1140:../../Middlewares/Third_Party/LwIP/src/core/pbuf.c ****       }
1141:../../Middlewares/Third_Party/LwIP/src/core/pbuf.c **** 
ARM GAS  /tmp/cc8sHRun.s 			page 23


1142:../../Middlewares/Third_Party/LwIP/src/core/pbuf.c ****       /* tot_len field in rest does not need modifications */
1143:../../Middlewares/Third_Party/LwIP/src/core/pbuf.c ****       /* reference counters do not need modifications */
1144:../../Middlewares/Third_Party/LwIP/src/core/pbuf.c ****       *rest = r;
1145:../../Middlewares/Third_Party/LwIP/src/core/pbuf.c ****     }
1146:../../Middlewares/Third_Party/LwIP/src/core/pbuf.c ****   }
1147:../../Middlewares/Third_Party/LwIP/src/core/pbuf.c **** }
1148:../../Middlewares/Third_Party/LwIP/src/core/pbuf.c **** #endif /* LWIP_TCP && TCP_QUEUE_OOSEQ && LWIP_WND_SCALE */
1149:../../Middlewares/Third_Party/LwIP/src/core/pbuf.c **** 
1150:../../Middlewares/Third_Party/LwIP/src/core/pbuf.c **** /* Actual implementation of pbuf_skip() but returning const pointer... */
1151:../../Middlewares/Third_Party/LwIP/src/core/pbuf.c **** static const struct pbuf *
1152:../../Middlewares/Third_Party/LwIP/src/core/pbuf.c **** pbuf_skip_const(const struct pbuf *in, u16_t in_offset, u16_t *out_offset)
1153:../../Middlewares/Third_Party/LwIP/src/core/pbuf.c **** {
 119              		.loc 1 1153 1 is_stmt 1 view -0
 120              		.cfi_startproc
 121              		@ args = 0, pretend = 0, frame = 0
 122              		@ frame_needed = 0, uses_anonymous_args = 0
 123              		@ link register save eliminated.
1154:../../Middlewares/Third_Party/LwIP/src/core/pbuf.c ****   u16_t offset_left = in_offset;
 124              		.loc 1 1154 3 view .LVU30
1155:../../Middlewares/Third_Party/LwIP/src/core/pbuf.c ****   const struct pbuf *q = in;
 125              		.loc 1 1155 3 view .LVU31
1156:../../Middlewares/Third_Party/LwIP/src/core/pbuf.c **** 
1157:../../Middlewares/Third_Party/LwIP/src/core/pbuf.c ****   /* get the correct pbuf */
1158:../../Middlewares/Third_Party/LwIP/src/core/pbuf.c ****   while ((q != NULL) && (q->len <= offset_left)) {
 126              		.loc 1 1158 3 view .LVU32
 127              		.loc 1 1158 9 is_stmt 0 view .LVU33
 128 0000 02E0     		b	.L7
 129              	.LVL4:
 130              	.L9:
1159:../../Middlewares/Third_Party/LwIP/src/core/pbuf.c ****     offset_left = (u16_t)(offset_left - q->len);
 131              		.loc 1 1159 5 is_stmt 1 view .LVU34
 132              		.loc 1 1159 17 is_stmt 0 view .LVU35
 133 0002 C91A     		subs	r1, r1, r3
 134              	.LVL5:
 135              		.loc 1 1159 17 view .LVU36
 136 0004 89B2     		uxth	r1, r1
 137              	.LVL6:
1160:../../Middlewares/Third_Party/LwIP/src/core/pbuf.c ****     q = q->next;
 138              		.loc 1 1160 5 is_stmt 1 view .LVU37
 139              		.loc 1 1160 7 is_stmt 0 view .LVU38
 140 0006 0068     		ldr	r0, [r0]
 141              	.LVL7:
 142              	.L7:
1158:../../Middlewares/Third_Party/LwIP/src/core/pbuf.c ****     offset_left = (u16_t)(offset_left - q->len);
 143              		.loc 1 1158 22 is_stmt 1 view .LVU39
 144 0008 10B1     		cbz	r0, .L8
1158:../../Middlewares/Third_Party/LwIP/src/core/pbuf.c ****     offset_left = (u16_t)(offset_left - q->len);
 145              		.loc 1 1158 27 is_stmt 0 discriminator 1 view .LVU40
 146 000a 4389     		ldrh	r3, [r0, #10]
1158:../../Middlewares/Third_Party/LwIP/src/core/pbuf.c ****     offset_left = (u16_t)(offset_left - q->len);
 147              		.loc 1 1158 22 discriminator 1 view .LVU41
 148 000c 8B42     		cmp	r3, r1
 149 000e F8D9     		bls	.L9
 150              	.L8:
1161:../../Middlewares/Third_Party/LwIP/src/core/pbuf.c ****   }
1162:../../Middlewares/Third_Party/LwIP/src/core/pbuf.c ****   if (out_offset != NULL) {
 151              		.loc 1 1162 3 is_stmt 1 view .LVU42
ARM GAS  /tmp/cc8sHRun.s 			page 24


 152              		.loc 1 1162 6 is_stmt 0 view .LVU43
 153 0010 02B1     		cbz	r2, .L10
1163:../../Middlewares/Third_Party/LwIP/src/core/pbuf.c ****     *out_offset = offset_left;
 154              		.loc 1 1163 5 is_stmt 1 view .LVU44
 155              		.loc 1 1163 17 is_stmt 0 view .LVU45
 156 0012 1180     		strh	r1, [r2]	@ movhi
 157              	.L10:
1164:../../Middlewares/Third_Party/LwIP/src/core/pbuf.c ****   }
1165:../../Middlewares/Third_Party/LwIP/src/core/pbuf.c ****   return q;
 158              		.loc 1 1165 3 is_stmt 1 view .LVU46
1166:../../Middlewares/Third_Party/LwIP/src/core/pbuf.c **** }
 159              		.loc 1 1166 1 is_stmt 0 view .LVU47
 160 0014 7047     		bx	lr
 161              		.cfi_endproc
 162              	.LFE194:
 164              		.section	.rodata.pbuf_add_header_impl.str1.4,"aMS",%progbits,1
 165              		.align	2
 166              	.LC0:
 167 0000 2E2E2F2E 		.ascii	"../../Middlewares/Third_Party/LwIP/src/core/pbuf.c\000"
 167      2E2F4D69 
 167      64646C65 
 167      77617265 
 167      732F5468 
 168 0033 00       		.align	2
 169              	.LC1:
 170 0034 7020213D 		.ascii	"p != NULL\000"
 170      204E554C 
 170      4C00
 171 003e 0000     		.align	2
 172              	.LC2:
 173 0040 41737365 		.ascii	"Assertion \"%s\" failed at line %d in %s\012\000"
 173      7274696F 
 173      6E202225 
 173      73222066 
 173      61696C65 
 174              		.section	.text.pbuf_add_header_impl,"ax",%progbits
 175              		.align	1
 176              		.syntax unified
 177              		.thumb
 178              		.thumb_func
 180              	pbuf_add_header_impl:
 181              	.LVL8:
 182              	.LFB177:
 474:../../Middlewares/Third_Party/LwIP/src/core/pbuf.c ****   u16_t type_internal;
 183              		.loc 1 474 1 is_stmt 1 view -0
 184              		.cfi_startproc
 185              		@ args = 0, pretend = 0, frame = 0
 186              		@ frame_needed = 0, uses_anonymous_args = 0
 474:../../Middlewares/Third_Party/LwIP/src/core/pbuf.c ****   u16_t type_internal;
 187              		.loc 1 474 1 is_stmt 0 view .LVU49
 188 0000 70B5     		push	{r4, r5, r6, lr}
 189              	.LCFI2:
 190              		.cfi_def_cfa_offset 16
 191              		.cfi_offset 4, -16
 192              		.cfi_offset 5, -12
 193              		.cfi_offset 6, -8
 194              		.cfi_offset 14, -4
ARM GAS  /tmp/cc8sHRun.s 			page 25


 195 0002 0C46     		mov	r4, r1
 196 0004 1646     		mov	r6, r2
 475:../../Middlewares/Third_Party/LwIP/src/core/pbuf.c ****   void *payload;
 197              		.loc 1 475 3 is_stmt 1 view .LVU50
 476:../../Middlewares/Third_Party/LwIP/src/core/pbuf.c ****   u16_t increment_magnitude;
 198              		.loc 1 476 3 view .LVU51
 477:../../Middlewares/Third_Party/LwIP/src/core/pbuf.c **** 
 199              		.loc 1 477 3 view .LVU52
 479:../../Middlewares/Third_Party/LwIP/src/core/pbuf.c ****   if ((p == NULL) || (header_size_increment > 0xFFFF)) {
 200              		.loc 1 479 3 view .LVU53
 479:../../Middlewares/Third_Party/LwIP/src/core/pbuf.c ****   if ((p == NULL) || (header_size_increment > 0xFFFF)) {
 201              		.loc 1 479 3 view .LVU54
 202 0006 0546     		mov	r5, r0
 203 0008 C8B1     		cbz	r0, .L22
 204              	.LVL9:
 205              	.L12:
 479:../../Middlewares/Third_Party/LwIP/src/core/pbuf.c ****   if ((p == NULL) || (header_size_increment > 0xFFFF)) {
 206              		.loc 1 479 3 discriminator 3 view .LVU55
 479:../../Middlewares/Third_Party/LwIP/src/core/pbuf.c ****   if ((p == NULL) || (header_size_increment > 0xFFFF)) {
 207              		.loc 1 479 3 discriminator 3 view .LVU56
 480:../../Middlewares/Third_Party/LwIP/src/core/pbuf.c ****     return 1;
 208              		.loc 1 480 3 view .LVU57
 480:../../Middlewares/Third_Party/LwIP/src/core/pbuf.c ****     return 1;
 209              		.loc 1 480 6 is_stmt 0 view .LVU58
 210 000a 002D     		cmp	r5, #0
 211 000c 18BF     		it	ne
 212 000e B4F5803F 		cmpne	r4, #65536
 213 0012 24D2     		bcs	.L16
 483:../../Middlewares/Third_Party/LwIP/src/core/pbuf.c ****     return 0;
 214              		.loc 1 483 3 is_stmt 1 view .LVU59
 483:../../Middlewares/Third_Party/LwIP/src/core/pbuf.c ****     return 0;
 215              		.loc 1 483 6 is_stmt 0 view .LVU60
 216 0014 2CB3     		cbz	r4, .L17
 487:../../Middlewares/Third_Party/LwIP/src/core/pbuf.c ****   /* Do not allow tot_len to wrap as a result. */
 217              		.loc 1 487 3 is_stmt 1 view .LVU61
 487:../../Middlewares/Third_Party/LwIP/src/core/pbuf.c ****   /* Do not allow tot_len to wrap as a result. */
 218              		.loc 1 487 23 is_stmt 0 view .LVU62
 219 0016 A2B2     		uxth	r2, r4
 220              	.LVL10:
 489:../../Middlewares/Third_Party/LwIP/src/core/pbuf.c ****     return 1;
 221              		.loc 1 489 3 is_stmt 1 view .LVU63
 489:../../Middlewares/Third_Party/LwIP/src/core/pbuf.c ****     return 1;
 222              		.loc 1 489 38 is_stmt 0 view .LVU64
 223 0018 2B89     		ldrh	r3, [r5, #8]
 489:../../Middlewares/Third_Party/LwIP/src/core/pbuf.c ****     return 1;
 224              		.loc 1 489 7 view .LVU65
 225 001a 1344     		add	r3, r3, r2
 226 001c 9BB2     		uxth	r3, r3
 489:../../Middlewares/Third_Party/LwIP/src/core/pbuf.c ****     return 1;
 227              		.loc 1 489 6 view .LVU66
 228 001e 9342     		cmp	r3, r2
 229 0020 21D3     		bcc	.L18
 493:../../Middlewares/Third_Party/LwIP/src/core/pbuf.c **** 
 230              		.loc 1 493 3 is_stmt 1 view .LVU67
 231              	.LVL11:
 496:../../Middlewares/Third_Party/LwIP/src/core/pbuf.c ****     /* set new payload pointer */
 232              		.loc 1 496 3 view .LVU68
ARM GAS  /tmp/cc8sHRun.s 			page 26


 496:../../Middlewares/Third_Party/LwIP/src/core/pbuf.c ****     /* set new payload pointer */
 233              		.loc 1 496 6 is_stmt 0 view .LVU69
 234 0022 95F90C10 		ldrsb	r1, [r5, #12]
 235 0026 0029     		cmp	r1, #0
 236 0028 11DB     		blt	.L23
 510:../../Middlewares/Third_Party/LwIP/src/core/pbuf.c ****       payload = (u8_t *)p->payload - header_size_increment;
 237              		.loc 1 510 5 is_stmt 1 view .LVU70
 510:../../Middlewares/Third_Party/LwIP/src/core/pbuf.c ****       payload = (u8_t *)p->payload - header_size_increment;
 238              		.loc 1 510 8 is_stmt 0 view .LVU71
 239 002a F6B1     		cbz	r6, .L20
 511:../../Middlewares/Third_Party/LwIP/src/core/pbuf.c ****     } else {
 240              		.loc 1 511 7 is_stmt 1 view .LVU72
 511:../../Middlewares/Third_Party/LwIP/src/core/pbuf.c ****     } else {
 241              		.loc 1 511 26 is_stmt 0 view .LVU73
 242 002c 6968     		ldr	r1, [r5, #4]
 511:../../Middlewares/Third_Party/LwIP/src/core/pbuf.c ****     } else {
 243              		.loc 1 511 15 view .LVU74
 244 002e 0C1B     		subs	r4, r1, r4
 245              	.LVL12:
 246              	.L15:
 519:../../Middlewares/Third_Party/LwIP/src/core/pbuf.c **** 
 247              		.loc 1 519 73 is_stmt 1 view .LVU75
 522:../../Middlewares/Third_Party/LwIP/src/core/pbuf.c ****   p->len = (u16_t)(p->len + increment_magnitude);
 248              		.loc 1 522 3 view .LVU76
 522:../../Middlewares/Third_Party/LwIP/src/core/pbuf.c ****   p->len = (u16_t)(p->len + increment_magnitude);
 249              		.loc 1 522 14 is_stmt 0 view .LVU77
 250 0030 6C60     		str	r4, [r5, #4]
 523:../../Middlewares/Third_Party/LwIP/src/core/pbuf.c ****   p->tot_len = (u16_t)(p->tot_len + increment_magnitude);
 251              		.loc 1 523 3 is_stmt 1 view .LVU78
 523:../../Middlewares/Third_Party/LwIP/src/core/pbuf.c ****   p->tot_len = (u16_t)(p->tot_len + increment_magnitude);
 252              		.loc 1 523 21 is_stmt 0 view .LVU79
 253 0032 6989     		ldrh	r1, [r5, #10]
 523:../../Middlewares/Third_Party/LwIP/src/core/pbuf.c ****   p->tot_len = (u16_t)(p->tot_len + increment_magnitude);
 254              		.loc 1 523 12 view .LVU80
 255 0034 0A44     		add	r2, r2, r1
 256              	.LVL13:
 523:../../Middlewares/Third_Party/LwIP/src/core/pbuf.c ****   p->tot_len = (u16_t)(p->tot_len + increment_magnitude);
 257              		.loc 1 523 10 view .LVU81
 258 0036 6A81     		strh	r2, [r5, #10]	@ movhi
 524:../../Middlewares/Third_Party/LwIP/src/core/pbuf.c **** 
 259              		.loc 1 524 3 is_stmt 1 view .LVU82
 524:../../Middlewares/Third_Party/LwIP/src/core/pbuf.c **** 
 260              		.loc 1 524 14 is_stmt 0 view .LVU83
 261 0038 2B81     		strh	r3, [r5, #8]	@ movhi
 527:../../Middlewares/Third_Party/LwIP/src/core/pbuf.c **** }
 262              		.loc 1 527 3 is_stmt 1 view .LVU84
 527:../../Middlewares/Third_Party/LwIP/src/core/pbuf.c **** }
 263              		.loc 1 527 10 is_stmt 0 view .LVU85
 264 003a 0020     		movs	r0, #0
 265 003c 10E0     		b	.L13
 266              	.LVL14:
 267              	.L22:
 479:../../Middlewares/Third_Party/LwIP/src/core/pbuf.c ****   if ((p == NULL) || (header_size_increment > 0xFFFF)) {
 268              		.loc 1 479 3 is_stmt 1 discriminator 1 view .LVU86
 479:../../Middlewares/Third_Party/LwIP/src/core/pbuf.c ****   if ((p == NULL) || (header_size_increment > 0xFFFF)) {
 269              		.loc 1 479 3 discriminator 1 view .LVU87
 270 003e 0C4B     		ldr	r3, .L24
ARM GAS  /tmp/cc8sHRun.s 			page 27


 271 0040 40F2DF12 		movw	r2, #479
 272              	.LVL15:
 479:../../Middlewares/Third_Party/LwIP/src/core/pbuf.c ****   if ((p == NULL) || (header_size_increment > 0xFFFF)) {
 273              		.loc 1 479 3 is_stmt 0 discriminator 1 view .LVU88
 274 0044 0B49     		ldr	r1, .L24+4
 275              	.LVL16:
 479:../../Middlewares/Third_Party/LwIP/src/core/pbuf.c ****   if ((p == NULL) || (header_size_increment > 0xFFFF)) {
 276              		.loc 1 479 3 discriminator 1 view .LVU89
 277 0046 0C48     		ldr	r0, .L24+8
 278              	.LVL17:
 479:../../Middlewares/Third_Party/LwIP/src/core/pbuf.c ****   if ((p == NULL) || (header_size_increment > 0xFFFF)) {
 279              		.loc 1 479 3 discriminator 1 view .LVU90
 280 0048 FFF7FEFF 		bl	printf
 281              	.LVL18:
 282 004c DDE7     		b	.L12
 283              	.LVL19:
 284              	.L23:
 498:../../Middlewares/Third_Party/LwIP/src/core/pbuf.c ****     /* boundary check fails? */
 285              		.loc 1 498 5 is_stmt 1 view .LVU91
 498:../../Middlewares/Third_Party/LwIP/src/core/pbuf.c ****     /* boundary check fails? */
 286              		.loc 1 498 24 is_stmt 0 view .LVU92
 287 004e 6968     		ldr	r1, [r5, #4]
 498:../../Middlewares/Third_Party/LwIP/src/core/pbuf.c ****     /* boundary check fails? */
 288              		.loc 1 498 13 view .LVU93
 289 0050 0C1B     		subs	r4, r1, r4
 290              	.LVL20:
 500:../../Middlewares/Third_Party/LwIP/src/core/pbuf.c ****       LWIP_DEBUGF( PBUF_DEBUG | LWIP_DBG_TRACE,
 291              		.loc 1 500 5 is_stmt 1 view .LVU94
 500:../../Middlewares/Third_Party/LwIP/src/core/pbuf.c ****       LWIP_DEBUGF( PBUF_DEBUG | LWIP_DBG_TRACE,
 292              		.loc 1 500 37 is_stmt 0 view .LVU95
 293 0052 05F11001 		add	r1, r5, #16
 500:../../Middlewares/Third_Party/LwIP/src/core/pbuf.c ****       LWIP_DEBUGF( PBUF_DEBUG | LWIP_DBG_TRACE,
 294              		.loc 1 500 8 view .LVU96
 295 0056 A142     		cmp	r1, r4
 296 0058 EAD9     		bls	.L15
 505:../../Middlewares/Third_Party/LwIP/src/core/pbuf.c ****     }
 297              		.loc 1 505 14 view .LVU97
 298 005a 0120     		movs	r0, #1
 299 005c 00E0     		b	.L13
 300              	.LVL21:
 301              	.L16:
 481:../../Middlewares/Third_Party/LwIP/src/core/pbuf.c ****   }
 302              		.loc 1 481 12 view .LVU98
 303 005e 0120     		movs	r0, #1
 304              	.LVL22:
 305              	.L13:
 528:../../Middlewares/Third_Party/LwIP/src/core/pbuf.c **** 
 306              		.loc 1 528 1 view .LVU99
 307 0060 70BD     		pop	{r4, r5, r6, pc}
 308              	.LVL23:
 309              	.L17:
 484:../../Middlewares/Third_Party/LwIP/src/core/pbuf.c ****   }
 310              		.loc 1 484 12 view .LVU100
 311 0062 0020     		movs	r0, #0
 312 0064 FCE7     		b	.L13
 313              	.LVL24:
 314              	.L18:
ARM GAS  /tmp/cc8sHRun.s 			page 28


 490:../../Middlewares/Third_Party/LwIP/src/core/pbuf.c ****   }
 315              		.loc 1 490 12 view .LVU101
 316 0066 0120     		movs	r0, #1
 317 0068 FAE7     		b	.L13
 318              	.LVL25:
 319              	.L20:
 515:../../Middlewares/Third_Party/LwIP/src/core/pbuf.c ****     }
 320              		.loc 1 515 14 view .LVU102
 321 006a 0120     		movs	r0, #1
 322 006c F8E7     		b	.L13
 323              	.L25:
 324 006e 00BF     		.align	2
 325              	.L24:
 326 0070 00000000 		.word	.LC0
 327 0074 34000000 		.word	.LC1
 328 0078 40000000 		.word	.LC2
 329              		.cfi_endproc
 330              	.LFE177:
 332              		.section	.text.pbuf_free_ooseq,"ax",%progbits
 333              		.align	1
 334              		.global	pbuf_free_ooseq
 335              		.syntax unified
 336              		.thumb
 337              		.thumb_func
 339              	pbuf_free_ooseq:
 340              	.LFB170:
 129:../../Middlewares/Third_Party/LwIP/src/core/pbuf.c ****   struct tcp_pcb *pcb;
 341              		.loc 1 129 1 is_stmt 1 view -0
 342              		.cfi_startproc
 343              		@ args = 0, pretend = 0, frame = 0
 344              		@ frame_needed = 0, uses_anonymous_args = 0
 345 0000 08B5     		push	{r3, lr}
 346              	.LCFI3:
 347              		.cfi_def_cfa_offset 8
 348              		.cfi_offset 3, -8
 349              		.cfi_offset 14, -4
 130:../../Middlewares/Third_Party/LwIP/src/core/pbuf.c ****   SYS_ARCH_SET(pbuf_free_ooseq_pending, 0);
 350              		.loc 1 130 3 view .LVU104
 131:../../Middlewares/Third_Party/LwIP/src/core/pbuf.c **** 
 351              		.loc 1 131 3 view .LVU105
 131:../../Middlewares/Third_Party/LwIP/src/core/pbuf.c **** 
 352              		.loc 1 131 3 view .LVU106
 131:../../Middlewares/Third_Party/LwIP/src/core/pbuf.c **** 
 353              		.loc 1 131 3 view .LVU107
 131:../../Middlewares/Third_Party/LwIP/src/core/pbuf.c **** 
 354              		.loc 1 131 3 view .LVU108
 355 0002 074B     		ldr	r3, .L32
 356 0004 0022     		movs	r2, #0
 357 0006 1A70     		strb	r2, [r3]
 131:../../Middlewares/Third_Party/LwIP/src/core/pbuf.c **** 
 358              		.loc 1 131 3 view .LVU109
 131:../../Middlewares/Third_Party/LwIP/src/core/pbuf.c **** 
 359              		.loc 1 131 3 view .LVU110
 133:../../Middlewares/Third_Party/LwIP/src/core/pbuf.c ****     if (pcb->ooseq != NULL) {
 360              		.loc 1 133 3 view .LVU111
 133:../../Middlewares/Third_Party/LwIP/src/core/pbuf.c ****     if (pcb->ooseq != NULL) {
 361              		.loc 1 133 12 is_stmt 0 view .LVU112
ARM GAS  /tmp/cc8sHRun.s 			page 29


 362 0008 064B     		ldr	r3, .L32+4
 363 000a 1868     		ldr	r0, [r3]
 364              	.LVL26:
 133:../../Middlewares/Third_Party/LwIP/src/core/pbuf.c ****     if (pcb->ooseq != NULL) {
 365              		.loc 1 133 3 view .LVU113
 366 000c 00E0     		b	.L27
 367              	.L28:
 133:../../Middlewares/Third_Party/LwIP/src/core/pbuf.c ****     if (pcb->ooseq != NULL) {
 368              		.loc 1 133 48 is_stmt 1 discriminator 2 view .LVU114
 369 000e C068     		ldr	r0, [r0, #12]
 370              	.LVL27:
 371              	.L27:
 133:../../Middlewares/Third_Party/LwIP/src/core/pbuf.c ****     if (pcb->ooseq != NULL) {
 372              		.loc 1 133 36 discriminator 1 view .LVU115
 373 0010 20B1     		cbz	r0, .L26
 134:../../Middlewares/Third_Party/LwIP/src/core/pbuf.c ****       /** Free the ooseq pbufs of one PCB only */
 374              		.loc 1 134 5 view .LVU116
 134:../../Middlewares/Third_Party/LwIP/src/core/pbuf.c ****       /** Free the ooseq pbufs of one PCB only */
 375              		.loc 1 134 12 is_stmt 0 view .LVU117
 376 0012 436F     		ldr	r3, [r0, #116]
 134:../../Middlewares/Third_Party/LwIP/src/core/pbuf.c ****       /** Free the ooseq pbufs of one PCB only */
 377              		.loc 1 134 8 view .LVU118
 378 0014 002B     		cmp	r3, #0
 379 0016 FAD0     		beq	.L28
 136:../../Middlewares/Third_Party/LwIP/src/core/pbuf.c ****       tcp_free_ooseq(pcb);
 380              		.loc 1 136 101 is_stmt 1 view .LVU119
 137:../../Middlewares/Third_Party/LwIP/src/core/pbuf.c ****       return;
 381              		.loc 1 137 7 view .LVU120
 382 0018 FFF7FEFF 		bl	tcp_free_ooseq
 383              	.LVL28:
 138:../../Middlewares/Third_Party/LwIP/src/core/pbuf.c ****     }
 384              		.loc 1 138 7 view .LVU121
 385              	.L26:
 141:../../Middlewares/Third_Party/LwIP/src/core/pbuf.c **** 
 386              		.loc 1 141 1 is_stmt 0 view .LVU122
 387 001c 08BD     		pop	{r3, pc}
 388              	.L33:
 389 001e 00BF     		.align	2
 390              	.L32:
 391 0020 00000000 		.word	pbuf_free_ooseq_pending
 392 0024 00000000 		.word	tcp_active_pcbs
 393              		.cfi_endproc
 394              	.LFE170:
 396              		.section	.rodata.pbuf_alloc_reference.str1.4,"aMS",%progbits,1
 397              		.align	2
 398              	.LC3:
 399 0000 696E7661 		.ascii	"invalid pbuf_type\000"
 399      6C696420 
 399      70627566 
 399      5F747970 
 399      6500
 400              		.section	.text.pbuf_alloc_reference,"ax",%progbits
 401              		.align	1
 402              		.global	pbuf_alloc_reference
 403              		.syntax unified
 404              		.thumb
 405              		.thumb_func
ARM GAS  /tmp/cc8sHRun.s 			page 30


 407              	pbuf_alloc_reference:
 408              	.LVL29:
 409              	.LFB174:
 328:../../Middlewares/Third_Party/LwIP/src/core/pbuf.c ****   struct pbuf *p;
 410              		.loc 1 328 1 is_stmt 1 view -0
 411              		.cfi_startproc
 412              		@ args = 0, pretend = 0, frame = 0
 413              		@ frame_needed = 0, uses_anonymous_args = 0
 328:../../Middlewares/Third_Party/LwIP/src/core/pbuf.c ****   struct pbuf *p;
 414              		.loc 1 328 1 is_stmt 0 view .LVU124
 415 0000 F0B5     		push	{r4, r5, r6, r7, lr}
 416              	.LCFI4:
 417              		.cfi_def_cfa_offset 20
 418              		.cfi_offset 4, -20
 419              		.cfi_offset 5, -16
 420              		.cfi_offset 6, -12
 421              		.cfi_offset 7, -8
 422              		.cfi_offset 14, -4
 423 0002 83B0     		sub	sp, sp, #12
 424              	.LCFI5:
 425              		.cfi_def_cfa_offset 32
 426 0004 0646     		mov	r6, r0
 427 0006 0D46     		mov	r5, r1
 428 0008 1446     		mov	r4, r2
 329:../../Middlewares/Third_Party/LwIP/src/core/pbuf.c ****   LWIP_ASSERT("invalid pbuf_type", (type == PBUF_REF) || (type == PBUF_ROM));
 429              		.loc 1 329 3 is_stmt 1 view .LVU125
 330:../../Middlewares/Third_Party/LwIP/src/core/pbuf.c ****   /* only allocate memory for the pbuf structure */
 430              		.loc 1 330 3 view .LVU126
 330:../../Middlewares/Third_Party/LwIP/src/core/pbuf.c ****   /* only allocate memory for the pbuf structure */
 431              		.loc 1 330 3 view .LVU127
 432 000a 412A     		cmp	r2, #65
 433 000c 18BF     		it	ne
 434 000e 012A     		cmpne	r2, #1
 435 0010 0FD1     		bne	.L38
 436              	.LVL30:
 437              	.L35:
 330:../../Middlewares/Third_Party/LwIP/src/core/pbuf.c ****   /* only allocate memory for the pbuf structure */
 438              		.loc 1 330 3 discriminator 3 view .LVU128
 330:../../Middlewares/Third_Party/LwIP/src/core/pbuf.c ****   /* only allocate memory for the pbuf structure */
 439              		.loc 1 330 3 discriminator 3 view .LVU129
 332:../../Middlewares/Third_Party/LwIP/src/core/pbuf.c ****   if (p == NULL) {
 440              		.loc 1 332 3 view .LVU130
 332:../../Middlewares/Third_Party/LwIP/src/core/pbuf.c ****   if (p == NULL) {
 441              		.loc 1 332 22 is_stmt 0 view .LVU131
 442 0012 0720     		movs	r0, #7
 443 0014 FFF7FEFF 		bl	memp_malloc
 444              	.LVL31:
 333:../../Middlewares/Third_Party/LwIP/src/core/pbuf.c ****     LWIP_DEBUGF(PBUF_DEBUG | LWIP_DBG_LEVEL_SERIOUS,
 445              		.loc 1 333 3 is_stmt 1 view .LVU132
 333:../../Middlewares/Third_Party/LwIP/src/core/pbuf.c ****     LWIP_DEBUGF(PBUF_DEBUG | LWIP_DBG_LEVEL_SERIOUS,
 446              		.loc 1 333 6 is_stmt 0 view .LVU133
 447 0018 0746     		mov	r7, r0
 448 001a 38B1     		cbz	r0, .L34
 339:../../Middlewares/Third_Party/LwIP/src/core/pbuf.c ****   return p;
 449              		.loc 1 339 3 is_stmt 1 view .LVU134
 450 001c 0023     		movs	r3, #0
 451 001e 0193     		str	r3, [sp, #4]
ARM GAS  /tmp/cc8sHRun.s 			page 31


 452 0020 0094     		str	r4, [sp]
 453 0022 2B46     		mov	r3, r5
 454 0024 2A46     		mov	r2, r5
 455 0026 3146     		mov	r1, r6
 456 0028 FFF7FEFF 		bl	pbuf_init_alloced_pbuf
 457              	.LVL32:
 340:../../Middlewares/Third_Party/LwIP/src/core/pbuf.c **** }
 458              		.loc 1 340 3 view .LVU135
 459              	.L34:
 341:../../Middlewares/Third_Party/LwIP/src/core/pbuf.c **** 
 460              		.loc 1 341 1 is_stmt 0 view .LVU136
 461 002c 3846     		mov	r0, r7
 462 002e 03B0     		add	sp, sp, #12
 463              	.LCFI6:
 464              		.cfi_remember_state
 465              		.cfi_def_cfa_offset 20
 466              		@ sp needed
 467 0030 F0BD     		pop	{r4, r5, r6, r7, pc}
 468              	.LVL33:
 469              	.L38:
 470              	.LCFI7:
 471              		.cfi_restore_state
 330:../../Middlewares/Third_Party/LwIP/src/core/pbuf.c ****   /* only allocate memory for the pbuf structure */
 472              		.loc 1 330 3 is_stmt 1 discriminator 1 view .LVU137
 330:../../Middlewares/Third_Party/LwIP/src/core/pbuf.c ****   /* only allocate memory for the pbuf structure */
 473              		.loc 1 330 3 discriminator 1 view .LVU138
 474 0032 044B     		ldr	r3, .L39
 475 0034 4FF4A572 		mov	r2, #330
 476              	.LVL34:
 330:../../Middlewares/Third_Party/LwIP/src/core/pbuf.c ****   /* only allocate memory for the pbuf structure */
 477              		.loc 1 330 3 is_stmt 0 discriminator 1 view .LVU139
 478 0038 0349     		ldr	r1, .L39+4
 479              	.LVL35:
 330:../../Middlewares/Third_Party/LwIP/src/core/pbuf.c ****   /* only allocate memory for the pbuf structure */
 480              		.loc 1 330 3 discriminator 1 view .LVU140
 481 003a 0448     		ldr	r0, .L39+8
 482              	.LVL36:
 330:../../Middlewares/Third_Party/LwIP/src/core/pbuf.c ****   /* only allocate memory for the pbuf structure */
 483              		.loc 1 330 3 discriminator 1 view .LVU141
 484 003c FFF7FEFF 		bl	printf
 485              	.LVL37:
 486 0040 E7E7     		b	.L35
 487              	.L40:
 488 0042 00BF     		.align	2
 489              	.L39:
 490 0044 00000000 		.word	.LC0
 491 0048 00000000 		.word	.LC3
 492 004c 40000000 		.word	.LC2
 493              		.cfi_endproc
 494              	.LFE174:
 496              		.section	.text.pbuf_alloced_custom,"ax",%progbits
 497              		.align	1
 498              		.global	pbuf_alloced_custom
 499              		.syntax unified
 500              		.thumb
 501              		.thumb_func
 503              	pbuf_alloced_custom:
ARM GAS  /tmp/cc8sHRun.s 			page 32


 504              	.LVL38:
 505              	.LFB175:
 365:../../Middlewares/Third_Party/LwIP/src/core/pbuf.c ****   u16_t offset = (u16_t)l;
 506              		.loc 1 365 1 is_stmt 1 view -0
 507              		.cfi_startproc
 508              		@ args = 8, pretend = 0, frame = 0
 509              		@ frame_needed = 0, uses_anonymous_args = 0
 365:../../Middlewares/Third_Party/LwIP/src/core/pbuf.c ****   u16_t offset = (u16_t)l;
 510              		.loc 1 365 1 is_stmt 0 view .LVU143
 511 0000 10B5     		push	{r4, lr}
 512              	.LCFI8:
 513              		.cfi_def_cfa_offset 8
 514              		.cfi_offset 4, -8
 515              		.cfi_offset 14, -4
 516 0002 82B0     		sub	sp, sp, #8
 517              	.LCFI9:
 518              		.cfi_def_cfa_offset 16
 519 0004 8446     		mov	ip, r0
 520 0006 8E46     		mov	lr, r1
 521 0008 1846     		mov	r0, r3
 522              	.LVL39:
 365:../../Middlewares/Third_Party/LwIP/src/core/pbuf.c ****   u16_t offset = (u16_t)l;
 523              		.loc 1 365 1 view .LVU144
 524 000a 0499     		ldr	r1, [sp, #16]
 525              	.LVL40:
 366:../../Middlewares/Third_Party/LwIP/src/core/pbuf.c ****   void *payload;
 526              		.loc 1 366 3 is_stmt 1 view .LVU145
 367:../../Middlewares/Third_Party/LwIP/src/core/pbuf.c ****   LWIP_DEBUGF(PBUF_DEBUG | LWIP_DBG_TRACE, ("pbuf_alloced_custom(length=%"U16_F")\n", length));
 527              		.loc 1 367 3 view .LVU146
 368:../../Middlewares/Third_Party/LwIP/src/core/pbuf.c **** 
 528              		.loc 1 368 95 view .LVU147
 370:../../Middlewares/Third_Party/LwIP/src/core/pbuf.c ****     LWIP_DEBUGF(PBUF_DEBUG | LWIP_DBG_LEVEL_WARNING, ("pbuf_alloced_custom(length=%"U16_F") buffer 
 529              		.loc 1 370 3 view .LVU148
 370:../../Middlewares/Third_Party/LwIP/src/core/pbuf.c ****     LWIP_DEBUGF(PBUF_DEBUG | LWIP_DBG_LEVEL_WARNING, ("pbuf_alloced_custom(length=%"U16_F") buffer 
 530              		.loc 1 370 7 is_stmt 0 view .LVU149
 531 000c 0CF1030C 		add	ip, ip, #3
 532              	.LVL41:
 370:../../Middlewares/Third_Party/LwIP/src/core/pbuf.c ****     LWIP_DEBUGF(PBUF_DEBUG | LWIP_DBG_LEVEL_WARNING, ("pbuf_alloced_custom(length=%"U16_F") buffer 
 533              		.loc 1 370 7 view .LVU150
 534 0010 2CF0030C 		bic	ip, ip, #3
 535              	.LVL42:
 370:../../Middlewares/Third_Party/LwIP/src/core/pbuf.c ****     LWIP_DEBUGF(PBUF_DEBUG | LWIP_DBG_LEVEL_WARNING, ("pbuf_alloced_custom(length=%"U16_F") buffer 
 536              		.loc 1 370 35 view .LVU151
 537 0014 0EEB0C04 		add	r4, lr, ip
 370:../../Middlewares/Third_Party/LwIP/src/core/pbuf.c ****     LWIP_DEBUGF(PBUF_DEBUG | LWIP_DBG_LEVEL_WARNING, ("pbuf_alloced_custom(length=%"U16_F") buffer 
 538              		.loc 1 370 6 view .LVU152
 539 0018 BDF81430 		ldrh	r3, [sp, #20]
 540              	.LVL43:
 370:../../Middlewares/Third_Party/LwIP/src/core/pbuf.c ****     LWIP_DEBUGF(PBUF_DEBUG | LWIP_DBG_LEVEL_WARNING, ("pbuf_alloced_custom(length=%"U16_F") buffer 
 541              		.loc 1 370 6 view .LVU153
 542 001c 9C42     		cmp	r4, r3
 543 001e 0CD8     		bhi	.L44
 375:../../Middlewares/Third_Party/LwIP/src/core/pbuf.c ****     payload = (u8_t *)payload_mem + LWIP_MEM_ALIGN_SIZE(offset);
 544              		.loc 1 375 3 is_stmt 1 view .LVU154
 375:../../Middlewares/Third_Party/LwIP/src/core/pbuf.c ****     payload = (u8_t *)payload_mem + LWIP_MEM_ALIGN_SIZE(offset);
 545              		.loc 1 375 6 is_stmt 0 view .LVU155
 546 0020 01B1     		cbz	r1, .L43
ARM GAS  /tmp/cc8sHRun.s 			page 33


 376:../../Middlewares/Third_Party/LwIP/src/core/pbuf.c ****   } else {
 547              		.loc 1 376 5 is_stmt 1 view .LVU156
 376:../../Middlewares/Third_Party/LwIP/src/core/pbuf.c ****   } else {
 548              		.loc 1 376 13 is_stmt 0 view .LVU157
 549 0022 6144     		add	r1, r1, ip
 550              	.L43:
 551              	.LVL44:
 380:../../Middlewares/Third_Party/LwIP/src/core/pbuf.c ****   return &p->pbuf;
 552              		.loc 1 380 3 is_stmt 1 view .LVU158
 553 0024 0446     		mov	r4, r0
 554 0026 0223     		movs	r3, #2
 555 0028 0193     		str	r3, [sp, #4]
 556 002a 0092     		str	r2, [sp]
 557 002c 7346     		mov	r3, lr
 558 002e 7246     		mov	r2, lr
 559              	.LVL45:
 380:../../Middlewares/Third_Party/LwIP/src/core/pbuf.c ****   return &p->pbuf;
 560              		.loc 1 380 3 is_stmt 0 view .LVU159
 561 0030 FFF7FEFF 		bl	pbuf_init_alloced_pbuf
 562              	.LVL46:
 381:../../Middlewares/Third_Party/LwIP/src/core/pbuf.c **** }
 563              		.loc 1 381 3 is_stmt 1 view .LVU160
 564              	.L41:
 382:../../Middlewares/Third_Party/LwIP/src/core/pbuf.c **** #endif /* LWIP_SUPPORT_CUSTOM_PBUF */
 565              		.loc 1 382 1 is_stmt 0 view .LVU161
 566 0034 2046     		mov	r0, r4
 567 0036 02B0     		add	sp, sp, #8
 568              	.LCFI10:
 569              		.cfi_remember_state
 570              		.cfi_def_cfa_offset 8
 571              		@ sp needed
 572 0038 10BD     		pop	{r4, pc}
 573              	.LVL47:
 574              	.L44:
 575              	.LCFI11:
 576              		.cfi_restore_state
 372:../../Middlewares/Third_Party/LwIP/src/core/pbuf.c ****   }
 577              		.loc 1 372 12 view .LVU162
 578 003a 0024     		movs	r4, #0
 579 003c FAE7     		b	.L41
 580              		.cfi_endproc
 581              	.LFE175:
 583              		.section	.text.pbuf_add_header,"ax",%progbits
 584              		.align	1
 585              		.global	pbuf_add_header
 586              		.syntax unified
 587              		.thumb
 588              		.thumb_func
 590              	pbuf_add_header:
 591              	.LVL48:
 592              	.LFB178:
 552:../../Middlewares/Third_Party/LwIP/src/core/pbuf.c ****   return pbuf_add_header_impl(p, header_size_increment, 0);
 593              		.loc 1 552 1 is_stmt 1 view -0
 594              		.cfi_startproc
 595              		@ args = 0, pretend = 0, frame = 0
 596              		@ frame_needed = 0, uses_anonymous_args = 0
 552:../../Middlewares/Third_Party/LwIP/src/core/pbuf.c ****   return pbuf_add_header_impl(p, header_size_increment, 0);
ARM GAS  /tmp/cc8sHRun.s 			page 34


 597              		.loc 1 552 1 is_stmt 0 view .LVU164
 598 0000 08B5     		push	{r3, lr}
 599              	.LCFI12:
 600              		.cfi_def_cfa_offset 8
 601              		.cfi_offset 3, -8
 602              		.cfi_offset 14, -4
 553:../../Middlewares/Third_Party/LwIP/src/core/pbuf.c **** }
 603              		.loc 1 553 3 is_stmt 1 view .LVU165
 553:../../Middlewares/Third_Party/LwIP/src/core/pbuf.c **** }
 604              		.loc 1 553 10 is_stmt 0 view .LVU166
 605 0002 0022     		movs	r2, #0
 606 0004 FFF7FEFF 		bl	pbuf_add_header_impl
 607              	.LVL49:
 554:../../Middlewares/Third_Party/LwIP/src/core/pbuf.c **** 
 608              		.loc 1 554 1 view .LVU167
 609 0008 08BD     		pop	{r3, pc}
 610              		.cfi_endproc
 611              	.LFE178:
 613              		.section	.text.pbuf_add_header_force,"ax",%progbits
 614              		.align	1
 615              		.global	pbuf_add_header_force
 616              		.syntax unified
 617              		.thumb
 618              		.thumb_func
 620              	pbuf_add_header_force:
 621              	.LVL50:
 622              	.LFB179:
 562:../../Middlewares/Third_Party/LwIP/src/core/pbuf.c ****   return pbuf_add_header_impl(p, header_size_increment, 1);
 623              		.loc 1 562 1 is_stmt 1 view -0
 624              		.cfi_startproc
 625              		@ args = 0, pretend = 0, frame = 0
 626              		@ frame_needed = 0, uses_anonymous_args = 0
 562:../../Middlewares/Third_Party/LwIP/src/core/pbuf.c ****   return pbuf_add_header_impl(p, header_size_increment, 1);
 627              		.loc 1 562 1 is_stmt 0 view .LVU169
 628 0000 08B5     		push	{r3, lr}
 629              	.LCFI13:
 630              		.cfi_def_cfa_offset 8
 631              		.cfi_offset 3, -8
 632              		.cfi_offset 14, -4
 563:../../Middlewares/Third_Party/LwIP/src/core/pbuf.c **** }
 633              		.loc 1 563 3 is_stmt 1 view .LVU170
 563:../../Middlewares/Third_Party/LwIP/src/core/pbuf.c **** }
 634              		.loc 1 563 10 is_stmt 0 view .LVU171
 635 0002 0122     		movs	r2, #1
 636 0004 FFF7FEFF 		bl	pbuf_add_header_impl
 637              	.LVL51:
 564:../../Middlewares/Third_Party/LwIP/src/core/pbuf.c **** 
 638              		.loc 1 564 1 view .LVU172
 639 0008 08BD     		pop	{r3, pc}
 640              		.cfi_endproc
 641              	.LFE179:
 643              		.section	.rodata.pbuf_remove_header.str1.4,"aMS",%progbits,1
 644              		.align	2
 645              	.LC4:
 646 0000 696E6372 		.ascii	"increment_magnitude <= p->len\000"
 646      656D656E 
 646      745F6D61 
ARM GAS  /tmp/cc8sHRun.s 			page 35


 646      676E6974 
 646      75646520 
 647              		.section	.text.pbuf_remove_header,"ax",%progbits
 648              		.align	1
 649              		.global	pbuf_remove_header
 650              		.syntax unified
 651              		.thumb
 652              		.thumb_func
 654              	pbuf_remove_header:
 655              	.LVL52:
 656              	.LFB180:
 583:../../Middlewares/Third_Party/LwIP/src/core/pbuf.c ****   void *payload;
 657              		.loc 1 583 1 is_stmt 1 view -0
 658              		.cfi_startproc
 659              		@ args = 0, pretend = 0, frame = 0
 660              		@ frame_needed = 0, uses_anonymous_args = 0
 583:../../Middlewares/Third_Party/LwIP/src/core/pbuf.c ****   void *payload;
 661              		.loc 1 583 1 is_stmt 0 view .LVU174
 662 0000 38B5     		push	{r3, r4, r5, lr}
 663              	.LCFI14:
 664              		.cfi_def_cfa_offset 16
 665              		.cfi_offset 3, -16
 666              		.cfi_offset 4, -12
 667              		.cfi_offset 5, -8
 668              		.cfi_offset 14, -4
 669 0002 0C46     		mov	r4, r1
 584:../../Middlewares/Third_Party/LwIP/src/core/pbuf.c ****   u16_t increment_magnitude;
 670              		.loc 1 584 3 is_stmt 1 view .LVU175
 585:../../Middlewares/Third_Party/LwIP/src/core/pbuf.c **** 
 671              		.loc 1 585 3 view .LVU176
 587:../../Middlewares/Third_Party/LwIP/src/core/pbuf.c ****   if ((p == NULL) || (header_size_decrement > 0xFFFF)) {
 672              		.loc 1 587 3 view .LVU177
 587:../../Middlewares/Third_Party/LwIP/src/core/pbuf.c ****   if ((p == NULL) || (header_size_decrement > 0xFFFF)) {
 673              		.loc 1 587 3 view .LVU178
 674 0004 0546     		mov	r5, r0
 675 0006 98B1     		cbz	r0, .L57
 676              	.LVL53:
 677              	.L51:
 587:../../Middlewares/Third_Party/LwIP/src/core/pbuf.c ****   if ((p == NULL) || (header_size_decrement > 0xFFFF)) {
 678              		.loc 1 587 3 discriminator 3 view .LVU179
 587:../../Middlewares/Third_Party/LwIP/src/core/pbuf.c ****   if ((p == NULL) || (header_size_decrement > 0xFFFF)) {
 679              		.loc 1 587 3 discriminator 3 view .LVU180
 588:../../Middlewares/Third_Party/LwIP/src/core/pbuf.c ****     return 1;
 680              		.loc 1 588 3 view .LVU181
 588:../../Middlewares/Third_Party/LwIP/src/core/pbuf.c ****     return 1;
 681              		.loc 1 588 6 is_stmt 0 view .LVU182
 682 0008 002D     		cmp	r5, #0
 683 000a 18BF     		it	ne
 684 000c B4F5803F 		cmpne	r4, #65536
 685 0010 1FD2     		bcs	.L54
 591:../../Middlewares/Third_Party/LwIP/src/core/pbuf.c ****     return 0;
 686              		.loc 1 591 3 is_stmt 1 view .LVU183
 591:../../Middlewares/Third_Party/LwIP/src/core/pbuf.c ****     return 0;
 687              		.loc 1 591 6 is_stmt 0 view .LVU184
 688 0012 04B3     		cbz	r4, .L55
 595:../../Middlewares/Third_Party/LwIP/src/core/pbuf.c ****   /* Check that we aren't going to move off the end of the pbuf */
 689              		.loc 1 595 3 is_stmt 1 view .LVU185
ARM GAS  /tmp/cc8sHRun.s 			page 36


 595:../../Middlewares/Third_Party/LwIP/src/core/pbuf.c ****   /* Check that we aren't going to move off the end of the pbuf */
 690              		.loc 1 595 23 is_stmt 0 view .LVU186
 691 0014 A2B2     		uxth	r2, r4
 692              	.LVL54:
 597:../../Middlewares/Third_Party/LwIP/src/core/pbuf.c **** 
 693              		.loc 1 597 3 is_stmt 1 view .LVU187
 597:../../Middlewares/Third_Party/LwIP/src/core/pbuf.c **** 
 694              		.loc 1 597 3 view .LVU188
 695 0016 6B89     		ldrh	r3, [r5, #10]
 696 0018 9342     		cmp	r3, r2
 697 001a 11D3     		bcc	.L58
 597:../../Middlewares/Third_Party/LwIP/src/core/pbuf.c **** 
 698              		.loc 1 597 3 discriminator 2 view .LVU189
 597:../../Middlewares/Third_Party/LwIP/src/core/pbuf.c **** 
 699              		.loc 1 597 3 discriminator 2 view .LVU190
 600:../../Middlewares/Third_Party/LwIP/src/core/pbuf.c ****   LWIP_UNUSED_ARG(payload); /* only used in LWIP_DEBUGF below */
 700              		.loc 1 600 3 view .LVU191
 701              	.LVL55:
 601:../../Middlewares/Third_Party/LwIP/src/core/pbuf.c **** 
 702              		.loc 1 601 3 view .LVU192
 604:../../Middlewares/Third_Party/LwIP/src/core/pbuf.c ****   /* modify pbuf length fields */
 703              		.loc 1 604 3 view .LVU193
 604:../../Middlewares/Third_Party/LwIP/src/core/pbuf.c ****   /* modify pbuf length fields */
 704              		.loc 1 604 25 is_stmt 0 view .LVU194
 705 001c 6968     		ldr	r1, [r5, #4]
 604:../../Middlewares/Third_Party/LwIP/src/core/pbuf.c ****   /* modify pbuf length fields */
 706              		.loc 1 604 35 view .LVU195
 707 001e 2144     		add	r1, r1, r4
 604:../../Middlewares/Third_Party/LwIP/src/core/pbuf.c ****   /* modify pbuf length fields */
 708              		.loc 1 604 14 view .LVU196
 709 0020 6960     		str	r1, [r5, #4]
 710              	.LVL56:
 606:../../Middlewares/Third_Party/LwIP/src/core/pbuf.c ****   p->tot_len = (u16_t)(p->tot_len - increment_magnitude);
 711              		.loc 1 606 3 is_stmt 1 view .LVU197
 606:../../Middlewares/Third_Party/LwIP/src/core/pbuf.c ****   p->tot_len = (u16_t)(p->tot_len - increment_magnitude);
 712              		.loc 1 606 12 is_stmt 0 view .LVU198
 713 0022 9B1A     		subs	r3, r3, r2
 606:../../Middlewares/Third_Party/LwIP/src/core/pbuf.c ****   p->tot_len = (u16_t)(p->tot_len - increment_magnitude);
 714              		.loc 1 606 10 view .LVU199
 715 0024 6B81     		strh	r3, [r5, #10]	@ movhi
 607:../../Middlewares/Third_Party/LwIP/src/core/pbuf.c **** 
 716              		.loc 1 607 3 is_stmt 1 view .LVU200
 607:../../Middlewares/Third_Party/LwIP/src/core/pbuf.c **** 
 717              		.loc 1 607 25 is_stmt 0 view .LVU201
 718 0026 2B89     		ldrh	r3, [r5, #8]
 607:../../Middlewares/Third_Party/LwIP/src/core/pbuf.c **** 
 719              		.loc 1 607 16 view .LVU202
 720 0028 9B1A     		subs	r3, r3, r2
 607:../../Middlewares/Third_Party/LwIP/src/core/pbuf.c **** 
 721              		.loc 1 607 14 view .LVU203
 722 002a 2B81     		strh	r3, [r5, #8]	@ movhi
 610:../../Middlewares/Third_Party/LwIP/src/core/pbuf.c **** 
 723              		.loc 1 610 73 is_stmt 1 view .LVU204
 612:../../Middlewares/Third_Party/LwIP/src/core/pbuf.c **** }
 724              		.loc 1 612 3 view .LVU205
 612:../../Middlewares/Third_Party/LwIP/src/core/pbuf.c **** }
 725              		.loc 1 612 10 is_stmt 0 view .LVU206
ARM GAS  /tmp/cc8sHRun.s 			page 37


 726 002c 0020     		movs	r0, #0
 727              	.LVL57:
 728              	.L52:
 613:../../Middlewares/Third_Party/LwIP/src/core/pbuf.c **** 
 729              		.loc 1 613 1 view .LVU207
 730 002e 38BD     		pop	{r3, r4, r5, pc}
 731              	.LVL58:
 732              	.L57:
 587:../../Middlewares/Third_Party/LwIP/src/core/pbuf.c ****   if ((p == NULL) || (header_size_decrement > 0xFFFF)) {
 733              		.loc 1 587 3 is_stmt 1 discriminator 1 view .LVU208
 587:../../Middlewares/Third_Party/LwIP/src/core/pbuf.c ****   if ((p == NULL) || (header_size_decrement > 0xFFFF)) {
 734              		.loc 1 587 3 discriminator 1 view .LVU209
 735 0030 0A4B     		ldr	r3, .L59
 736 0032 40F24B22 		movw	r2, #587
 737 0036 0A49     		ldr	r1, .L59+4
 738              	.LVL59:
 587:../../Middlewares/Third_Party/LwIP/src/core/pbuf.c ****   if ((p == NULL) || (header_size_decrement > 0xFFFF)) {
 739              		.loc 1 587 3 is_stmt 0 discriminator 1 view .LVU210
 740 0038 0A48     		ldr	r0, .L59+8
 741              	.LVL60:
 587:../../Middlewares/Third_Party/LwIP/src/core/pbuf.c ****   if ((p == NULL) || (header_size_decrement > 0xFFFF)) {
 742              		.loc 1 587 3 discriminator 1 view .LVU211
 743 003a FFF7FEFF 		bl	printf
 744              	.LVL61:
 745 003e E3E7     		b	.L51
 746              	.LVL62:
 747              	.L58:
 597:../../Middlewares/Third_Party/LwIP/src/core/pbuf.c **** 
 748              		.loc 1 597 3 is_stmt 1 discriminator 1 view .LVU212
 597:../../Middlewares/Third_Party/LwIP/src/core/pbuf.c **** 
 749              		.loc 1 597 3 discriminator 1 view .LVU213
 750 0040 064B     		ldr	r3, .L59
 751 0042 40F25522 		movw	r2, #597
 752              	.LVL63:
 597:../../Middlewares/Third_Party/LwIP/src/core/pbuf.c **** 
 753              		.loc 1 597 3 is_stmt 0 discriminator 1 view .LVU214
 754 0046 0849     		ldr	r1, .L59+12
 755 0048 0648     		ldr	r0, .L59+8
 756 004a FFF7FEFF 		bl	printf
 757              	.LVL64:
 597:../../Middlewares/Third_Party/LwIP/src/core/pbuf.c **** 
 758              		.loc 1 597 3 is_stmt 1 discriminator 1 view .LVU215
 597:../../Middlewares/Third_Party/LwIP/src/core/pbuf.c **** 
 759              		.loc 1 597 3 discriminator 1 view .LVU216
 760 004e 0120     		movs	r0, #1
 597:../../Middlewares/Third_Party/LwIP/src/core/pbuf.c **** 
 761              		.loc 1 597 3 is_stmt 0 view .LVU217
 762 0050 EDE7     		b	.L52
 763              	.LVL65:
 764              	.L54:
 589:../../Middlewares/Third_Party/LwIP/src/core/pbuf.c ****   }
 765              		.loc 1 589 12 view .LVU218
 766 0052 0120     		movs	r0, #1
 767 0054 EBE7     		b	.L52
 768              	.L55:
 592:../../Middlewares/Third_Party/LwIP/src/core/pbuf.c ****   }
 769              		.loc 1 592 12 view .LVU219
ARM GAS  /tmp/cc8sHRun.s 			page 38


 770 0056 0020     		movs	r0, #0
 771 0058 E9E7     		b	.L52
 772              	.L60:
 773 005a 00BF     		.align	2
 774              	.L59:
 775 005c 00000000 		.word	.LC0
 776 0060 34000000 		.word	.LC1
 777 0064 40000000 		.word	.LC2
 778 0068 00000000 		.word	.LC4
 779              		.cfi_endproc
 780              	.LFE180:
 782              		.section	.text.pbuf_header_impl,"ax",%progbits
 783              		.align	1
 784              		.syntax unified
 785              		.thumb
 786              		.thumb_func
 788              	pbuf_header_impl:
 789              	.LVL66:
 790              	.LFB181:
 617:../../Middlewares/Third_Party/LwIP/src/core/pbuf.c ****   if (header_size_increment < 0) {
 791              		.loc 1 617 1 is_stmt 1 view -0
 792              		.cfi_startproc
 793              		@ args = 0, pretend = 0, frame = 0
 794              		@ frame_needed = 0, uses_anonymous_args = 0
 617:../../Middlewares/Third_Party/LwIP/src/core/pbuf.c ****   if (header_size_increment < 0) {
 795              		.loc 1 617 1 is_stmt 0 view .LVU221
 796 0000 08B5     		push	{r3, lr}
 797              	.LCFI15:
 798              		.cfi_def_cfa_offset 8
 799              		.cfi_offset 3, -8
 800              		.cfi_offset 14, -4
 618:../../Middlewares/Third_Party/LwIP/src/core/pbuf.c ****     return pbuf_remove_header(p, (size_t) - header_size_increment);
 801              		.loc 1 618 3 is_stmt 1 view .LVU222
 618:../../Middlewares/Third_Party/LwIP/src/core/pbuf.c ****     return pbuf_remove_header(p, (size_t) - header_size_increment);
 802              		.loc 1 618 6 is_stmt 0 view .LVU223
 803 0002 0029     		cmp	r1, #0
 618:../../Middlewares/Third_Party/LwIP/src/core/pbuf.c ****     return pbuf_remove_header(p, (size_t) - header_size_increment);
 804              		.loc 1 618 6 view .LVU224
 805 0004 02DB     		blt	.L65
 621:../../Middlewares/Third_Party/LwIP/src/core/pbuf.c ****   }
 806              		.loc 1 621 5 is_stmt 1 view .LVU225
 621:../../Middlewares/Third_Party/LwIP/src/core/pbuf.c ****   }
 807              		.loc 1 621 12 is_stmt 0 view .LVU226
 808 0006 FFF7FEFF 		bl	pbuf_add_header_impl
 809              	.LVL67:
 810              	.L63:
 623:../../Middlewares/Third_Party/LwIP/src/core/pbuf.c **** 
 811              		.loc 1 623 1 view .LVU227
 812 000a 08BD     		pop	{r3, pc}
 813              	.LVL68:
 814              	.L65:
 619:../../Middlewares/Third_Party/LwIP/src/core/pbuf.c ****   } else {
 815              		.loc 1 619 5 is_stmt 1 view .LVU228
 619:../../Middlewares/Third_Party/LwIP/src/core/pbuf.c ****   } else {
 816              		.loc 1 619 12 is_stmt 0 view .LVU229
 817 000c 4942     		rsbs	r1, r1, #0
 818 000e FFF7FEFF 		bl	pbuf_remove_header
ARM GAS  /tmp/cc8sHRun.s 			page 39


 819              	.LVL69:
 619:../../Middlewares/Third_Party/LwIP/src/core/pbuf.c ****   } else {
 820              		.loc 1 619 12 view .LVU230
 821 0012 FAE7     		b	.L63
 822              		.cfi_endproc
 823              	.LFE181:
 825              		.section	.text.pbuf_header,"ax",%progbits
 826              		.align	1
 827              		.global	pbuf_header
 828              		.syntax unified
 829              		.thumb
 830              		.thumb_func
 832              	pbuf_header:
 833              	.LVL70:
 834              	.LFB182:
 647:../../Middlewares/Third_Party/LwIP/src/core/pbuf.c ****   return pbuf_header_impl(p, header_size_increment, 0);
 835              		.loc 1 647 1 is_stmt 1 view -0
 836              		.cfi_startproc
 837              		@ args = 0, pretend = 0, frame = 0
 838              		@ frame_needed = 0, uses_anonymous_args = 0
 647:../../Middlewares/Third_Party/LwIP/src/core/pbuf.c ****   return pbuf_header_impl(p, header_size_increment, 0);
 839              		.loc 1 647 1 is_stmt 0 view .LVU232
 840 0000 08B5     		push	{r3, lr}
 841              	.LCFI16:
 842              		.cfi_def_cfa_offset 8
 843              		.cfi_offset 3, -8
 844              		.cfi_offset 14, -4
 648:../../Middlewares/Third_Party/LwIP/src/core/pbuf.c **** }
 845              		.loc 1 648 3 is_stmt 1 view .LVU233
 648:../../Middlewares/Third_Party/LwIP/src/core/pbuf.c **** }
 846              		.loc 1 648 10 is_stmt 0 view .LVU234
 847 0002 0022     		movs	r2, #0
 848 0004 FFF7FEFF 		bl	pbuf_header_impl
 849              	.LVL71:
 649:../../Middlewares/Third_Party/LwIP/src/core/pbuf.c **** 
 850              		.loc 1 649 1 view .LVU235
 851 0008 08BD     		pop	{r3, pc}
 852              		.cfi_endproc
 853              	.LFE182:
 855              		.section	.text.pbuf_header_force,"ax",%progbits
 856              		.align	1
 857              		.global	pbuf_header_force
 858              		.syntax unified
 859              		.thumb
 860              		.thumb_func
 862              	pbuf_header_force:
 863              	.LVL72:
 864              	.LFB183:
 657:../../Middlewares/Third_Party/LwIP/src/core/pbuf.c ****   return pbuf_header_impl(p, header_size_increment, 1);
 865              		.loc 1 657 1 is_stmt 1 view -0
 866              		.cfi_startproc
 867              		@ args = 0, pretend = 0, frame = 0
 868              		@ frame_needed = 0, uses_anonymous_args = 0
 657:../../Middlewares/Third_Party/LwIP/src/core/pbuf.c ****   return pbuf_header_impl(p, header_size_increment, 1);
 869              		.loc 1 657 1 is_stmt 0 view .LVU237
 870 0000 08B5     		push	{r3, lr}
 871              	.LCFI17:
ARM GAS  /tmp/cc8sHRun.s 			page 40


 872              		.cfi_def_cfa_offset 8
 873              		.cfi_offset 3, -8
 874              		.cfi_offset 14, -4
 658:../../Middlewares/Third_Party/LwIP/src/core/pbuf.c **** }
 875              		.loc 1 658 3 is_stmt 1 view .LVU238
 658:../../Middlewares/Third_Party/LwIP/src/core/pbuf.c **** }
 876              		.loc 1 658 10 is_stmt 0 view .LVU239
 877 0002 0122     		movs	r2, #1
 878 0004 FFF7FEFF 		bl	pbuf_header_impl
 879              	.LVL73:
 659:../../Middlewares/Third_Party/LwIP/src/core/pbuf.c **** 
 880              		.loc 1 659 1 view .LVU240
 881 0008 08BD     		pop	{r3, pc}
 882              		.cfi_endproc
 883              	.LFE183:
 885              		.section	.rodata.pbuf_free.str1.4,"aMS",%progbits,1
 886              		.align	2
 887              	.LC5:
 888 0000 70627566 		.ascii	"pbuf_free: p->ref > 0\000"
 888      5F667265 
 888      653A2070 
 888      2D3E7265 
 888      66203E20 
 889 0016 0000     		.align	2
 890              	.LC6:
 891 0018 70632D3E 		.ascii	"pc->custom_free_function != NULL\000"
 891      63757374 
 891      6F6D5F66 
 891      7265655F 
 891      66756E63 
 892 0039 000000   		.align	2
 893              	.LC7:
 894 003c 696E7661 		.ascii	"invalid pbuf type\000"
 894      6C696420 
 894      70627566 
 894      20747970 
 894      6500
 895              		.section	.text.pbuf_free,"ax",%progbits
 896              		.align	1
 897              		.global	pbuf_free
 898              		.syntax unified
 899              		.thumb
 900              		.thumb_func
 902              	pbuf_free:
 903              	.LVL74:
 904              	.LFB185:
 726:../../Middlewares/Third_Party/LwIP/src/core/pbuf.c ****   u8_t alloc_src;
 905              		.loc 1 726 1 is_stmt 1 view -0
 906              		.cfi_startproc
 907              		@ args = 0, pretend = 0, frame = 0
 908              		@ frame_needed = 0, uses_anonymous_args = 0
 726:../../Middlewares/Third_Party/LwIP/src/core/pbuf.c ****   u8_t alloc_src;
 909              		.loc 1 726 1 is_stmt 0 view .LVU242
 910 0000 70B5     		push	{r4, r5, r6, lr}
 911              	.LCFI18:
 912              		.cfi_def_cfa_offset 16
 913              		.cfi_offset 4, -16
ARM GAS  /tmp/cc8sHRun.s 			page 41


 914              		.cfi_offset 5, -12
 915              		.cfi_offset 6, -8
 916              		.cfi_offset 14, -4
 727:../../Middlewares/Third_Party/LwIP/src/core/pbuf.c ****   struct pbuf *q;
 917              		.loc 1 727 3 is_stmt 1 view .LVU243
 728:../../Middlewares/Third_Party/LwIP/src/core/pbuf.c ****   u8_t count;
 918              		.loc 1 728 3 view .LVU244
 729:../../Middlewares/Third_Party/LwIP/src/core/pbuf.c **** 
 919              		.loc 1 729 3 view .LVU245
 731:../../Middlewares/Third_Party/LwIP/src/core/pbuf.c ****     LWIP_ASSERT("p != NULL", p != NULL);
 920              		.loc 1 731 3 view .LVU246
 731:../../Middlewares/Third_Party/LwIP/src/core/pbuf.c ****     LWIP_ASSERT("p != NULL", p != NULL);
 921              		.loc 1 731 6 is_stmt 0 view .LVU247
 922 0002 10B1     		cbz	r0, .L83
 923 0004 0446     		mov	r4, r0
 742:../../Middlewares/Third_Party/LwIP/src/core/pbuf.c ****   /* de-allocate all consecutive pbufs from the head of the chain that
 924              		.loc 1 742 9 view .LVU248
 925 0006 0025     		movs	r5, #0
 926 0008 17E0     		b	.L71
 927              	.L83:
 732:../../Middlewares/Third_Party/LwIP/src/core/pbuf.c ****     /* if assertions are disabled, proceed with debug output */
 928              		.loc 1 732 5 is_stmt 1 view .LVU249
 732:../../Middlewares/Third_Party/LwIP/src/core/pbuf.c ****     /* if assertions are disabled, proceed with debug output */
 929              		.loc 1 732 5 view .LVU250
 732:../../Middlewares/Third_Party/LwIP/src/core/pbuf.c ****     /* if assertions are disabled, proceed with debug output */
 930              		.loc 1 732 5 discriminator 1 view .LVU251
 732:../../Middlewares/Third_Party/LwIP/src/core/pbuf.c ****     /* if assertions are disabled, proceed with debug output */
 931              		.loc 1 732 5 discriminator 1 view .LVU252
 932 000a 284B     		ldr	r3, .L87
 933 000c 4FF43772 		mov	r2, #732
 934 0010 2749     		ldr	r1, .L87+4
 935 0012 2848     		ldr	r0, .L87+8
 936              	.LVL75:
 732:../../Middlewares/Third_Party/LwIP/src/core/pbuf.c ****     /* if assertions are disabled, proceed with debug output */
 937              		.loc 1 732 5 is_stmt 0 discriminator 1 view .LVU253
 938 0014 FFF7FEFF 		bl	printf
 939              	.LVL76:
 732:../../Middlewares/Third_Party/LwIP/src/core/pbuf.c ****     /* if assertions are disabled, proceed with debug output */
 940              		.loc 1 732 5 is_stmt 1 discriminator 3 view .LVU254
 732:../../Middlewares/Third_Party/LwIP/src/core/pbuf.c ****     /* if assertions are disabled, proceed with debug output */
 941              		.loc 1 732 5 discriminator 3 view .LVU255
 735:../../Middlewares/Third_Party/LwIP/src/core/pbuf.c ****     return 0;
 942              		.loc 1 735 56 view .LVU256
 736:../../Middlewares/Third_Party/LwIP/src/core/pbuf.c ****   }
 943              		.loc 1 736 5 view .LVU257
 736:../../Middlewares/Third_Party/LwIP/src/core/pbuf.c ****   }
 944              		.loc 1 736 12 is_stmt 0 view .LVU258
 945 0018 0025     		movs	r5, #0
 946              	.LVL77:
 947              	.L72:
 800:../../Middlewares/Third_Party/LwIP/src/core/pbuf.c **** 
 948              		.loc 1 800 1 view .LVU259
 949 001a 2846     		mov	r0, r5
 950 001c 70BD     		pop	{r4, r5, r6, pc}
 951              	.LVL78:
 952              	.L84:
 953              	.LBB2:
ARM GAS  /tmp/cc8sHRun.s 			page 42


 753:../../Middlewares/Third_Party/LwIP/src/core/pbuf.c ****     /* decrease reference count (number of pointers to pbuf) */
 954              		.loc 1 753 5 is_stmt 1 discriminator 1 view .LVU260
 753:../../Middlewares/Third_Party/LwIP/src/core/pbuf.c ****     /* decrease reference count (number of pointers to pbuf) */
 955              		.loc 1 753 5 discriminator 1 view .LVU261
 956 001e 234B     		ldr	r3, .L87
 957 0020 40F2F122 		movw	r2, #753
 958 0024 2449     		ldr	r1, .L87+12
 959 0026 2348     		ldr	r0, .L87+8
 960 0028 FFF7FEFF 		bl	printf
 961              	.LVL79:
 962 002c 0AE0     		b	.L73
 963              	.LVL80:
 964              	.L75:
 965              	.LBB3:
 767:../../Middlewares/Third_Party/LwIP/src/core/pbuf.c ****         pc->custom_free_function(p);
 966              		.loc 1 767 9 discriminator 3 view .LVU262
 767:../../Middlewares/Third_Party/LwIP/src/core/pbuf.c ****         pc->custom_free_function(p);
 967              		.loc 1 767 9 discriminator 3 view .LVU263
 768:../../Middlewares/Third_Party/LwIP/src/core/pbuf.c ****       } else
 968              		.loc 1 768 9 view .LVU264
 768:../../Middlewares/Third_Party/LwIP/src/core/pbuf.c ****       } else
 969              		.loc 1 768 11 is_stmt 0 view .LVU265
 970 002e 2369     		ldr	r3, [r4, #16]
 768:../../Middlewares/Third_Party/LwIP/src/core/pbuf.c ****       } else
 971              		.loc 1 768 9 view .LVU266
 972 0030 2046     		mov	r0, r4
 973 0032 9847     		blx	r3
 974              	.LVL81:
 975              	.L76:
 768:../../Middlewares/Third_Party/LwIP/src/core/pbuf.c ****       } else
 976              		.loc 1 768 9 view .LVU267
 977              	.LBE3:
 783:../../Middlewares/Third_Party/LwIP/src/core/pbuf.c ****         }
 978              		.loc 1 783 11 is_stmt 1 discriminator 3 view .LVU268
 783:../../Middlewares/Third_Party/LwIP/src/core/pbuf.c ****         }
 979              		.loc 1 783 11 discriminator 3 view .LVU269
 786:../../Middlewares/Third_Party/LwIP/src/core/pbuf.c ****       /* proceed to next pbuf */
 980              		.loc 1 786 7 view .LVU270
 786:../../Middlewares/Third_Party/LwIP/src/core/pbuf.c ****       /* proceed to next pbuf */
 981              		.loc 1 786 12 is_stmt 0 view .LVU271
 982 0034 0135     		adds	r5, r5, #1
 983              	.LVL82:
 786:../../Middlewares/Third_Party/LwIP/src/core/pbuf.c ****       /* proceed to next pbuf */
 984              		.loc 1 786 12 view .LVU272
 985 0036 EDB2     		uxtb	r5, r5
 986              	.LVL83:
 788:../../Middlewares/Third_Party/LwIP/src/core/pbuf.c ****       /* p->ref > 0, this pbuf is still referenced to */
 987              		.loc 1 788 7 is_stmt 1 view .LVU273
 788:../../Middlewares/Third_Party/LwIP/src/core/pbuf.c ****       /* p->ref > 0, this pbuf is still referenced to */
 988              		.loc 1 788 9 is_stmt 0 view .LVU274
 989 0038 3446     		mov	r4, r6
 990              	.LVL84:
 991              	.L71:
 788:../../Middlewares/Third_Party/LwIP/src/core/pbuf.c ****       /* p->ref > 0, this pbuf is still referenced to */
 992              		.loc 1 788 9 view .LVU275
 993              	.LBE2:
 745:../../Middlewares/Third_Party/LwIP/src/core/pbuf.c ****     LWIP_PBUF_REF_T ref;
ARM GAS  /tmp/cc8sHRun.s 			page 43


 994              		.loc 1 745 12 is_stmt 1 view .LVU276
 995 003a 002C     		cmp	r4, #0
 996 003c EDD0     		beq	.L72
 997              	.LBB5:
 746:../../Middlewares/Third_Party/LwIP/src/core/pbuf.c ****     SYS_ARCH_DECL_PROTECT(old_level);
 998              		.loc 1 746 5 view .LVU277
 747:../../Middlewares/Third_Party/LwIP/src/core/pbuf.c ****     /* Since decrementing ref cannot be guaranteed to be a single machine operation
 999              		.loc 1 747 37 view .LVU278
 751:../../Middlewares/Third_Party/LwIP/src/core/pbuf.c ****     /* all pbufs in a chain are referenced at least once */
 1000              		.loc 1 751 32 view .LVU279
 753:../../Middlewares/Third_Party/LwIP/src/core/pbuf.c ****     /* decrease reference count (number of pointers to pbuf) */
 1001              		.loc 1 753 5 view .LVU280
 753:../../Middlewares/Third_Party/LwIP/src/core/pbuf.c ****     /* decrease reference count (number of pointers to pbuf) */
 1002              		.loc 1 753 5 view .LVU281
 1003 003e A37B     		ldrb	r3, [r4, #14]	@ zero_extendqisi2
 1004 0040 002B     		cmp	r3, #0
 1005 0042 ECD0     		beq	.L84
 1006              	.L73:
 753:../../Middlewares/Third_Party/LwIP/src/core/pbuf.c ****     /* decrease reference count (number of pointers to pbuf) */
 1007              		.loc 1 753 5 discriminator 3 view .LVU282
 753:../../Middlewares/Third_Party/LwIP/src/core/pbuf.c ****     /* decrease reference count (number of pointers to pbuf) */
 1008              		.loc 1 753 5 discriminator 3 view .LVU283
 755:../../Middlewares/Third_Party/LwIP/src/core/pbuf.c ****     SYS_ARCH_UNPROTECT(old_level);
 1009              		.loc 1 755 5 view .LVU284
 755:../../Middlewares/Third_Party/LwIP/src/core/pbuf.c ****     SYS_ARCH_UNPROTECT(old_level);
 1010              		.loc 1 755 15 is_stmt 0 view .LVU285
 1011 0044 A37B     		ldrb	r3, [r4, #14]	@ zero_extendqisi2
 755:../../Middlewares/Third_Party/LwIP/src/core/pbuf.c ****     SYS_ARCH_UNPROTECT(old_level);
 1012              		.loc 1 755 11 view .LVU286
 1013 0046 013B     		subs	r3, r3, #1
 1014 0048 DBB2     		uxtb	r3, r3
 755:../../Middlewares/Third_Party/LwIP/src/core/pbuf.c ****     SYS_ARCH_UNPROTECT(old_level);
 1015              		.loc 1 755 9 view .LVU287
 1016 004a A373     		strb	r3, [r4, #14]
 1017              	.LVL85:
 756:../../Middlewares/Third_Party/LwIP/src/core/pbuf.c ****     /* this pbuf is no longer referenced to? */
 1018              		.loc 1 756 34 is_stmt 1 view .LVU288
 758:../../Middlewares/Third_Party/LwIP/src/core/pbuf.c ****       /* remember next pbuf in chain for next iteration */
 1019              		.loc 1 758 5 view .LVU289
 758:../../Middlewares/Third_Party/LwIP/src/core/pbuf.c ****       /* remember next pbuf in chain for next iteration */
 1020              		.loc 1 758 8 is_stmt 0 view .LVU290
 1021 004c 002B     		cmp	r3, #0
 1022 004e E4D1     		bne	.L72
 760:../../Middlewares/Third_Party/LwIP/src/core/pbuf.c ****       LWIP_DEBUGF( PBUF_DEBUG | LWIP_DBG_TRACE, ("pbuf_free: deallocating %p\n", (void *)p));
 1023              		.loc 1 760 7 is_stmt 1 view .LVU291
 760:../../Middlewares/Third_Party/LwIP/src/core/pbuf.c ****       LWIP_DEBUGF( PBUF_DEBUG | LWIP_DBG_TRACE, ("pbuf_free: deallocating %p\n", (void *)p));
 1024              		.loc 1 760 9 is_stmt 0 view .LVU292
 1025 0050 2668     		ldr	r6, [r4]
 1026              	.LVL86:
 761:../../Middlewares/Third_Party/LwIP/src/core/pbuf.c ****       alloc_src = pbuf_get_allocsrc(p);
 1027              		.loc 1 761 93 is_stmt 1 view .LVU293
 762:../../Middlewares/Third_Party/LwIP/src/core/pbuf.c **** #if LWIP_SUPPORT_CUSTOM_PBUF
 1028              		.loc 1 762 7 view .LVU294
 762:../../Middlewares/Third_Party/LwIP/src/core/pbuf.c **** #if LWIP_SUPPORT_CUSTOM_PBUF
 1029              		.loc 1 762 19 is_stmt 0 view .LVU295
 1030 0052 237B     		ldrb	r3, [r4, #12]	@ zero_extendqisi2
 1031              	.LVL87:
ARM GAS  /tmp/cc8sHRun.s 			page 44


 762:../../Middlewares/Third_Party/LwIP/src/core/pbuf.c **** #if LWIP_SUPPORT_CUSTOM_PBUF
 1032              		.loc 1 762 17 view .LVU296
 1033 0054 03F00F03 		and	r3, r3, #15
 1034              	.LVL88:
 765:../../Middlewares/Third_Party/LwIP/src/core/pbuf.c ****         struct pbuf_custom *pc = (struct pbuf_custom *)p;
 1035              		.loc 1 765 7 is_stmt 1 view .LVU297
 765:../../Middlewares/Third_Party/LwIP/src/core/pbuf.c ****         struct pbuf_custom *pc = (struct pbuf_custom *)p;
 1036              		.loc 1 765 13 is_stmt 0 view .LVU298
 1037 0058 627B     		ldrb	r2, [r4, #13]	@ zero_extendqisi2
 765:../../Middlewares/Third_Party/LwIP/src/core/pbuf.c ****         struct pbuf_custom *pc = (struct pbuf_custom *)p;
 1038              		.loc 1 765 10 view .LVU299
 1039 005a 12F0020F 		tst	r2, #2
 1040 005e 0AD0     		beq	.L74
 1041              	.LBB4:
 766:../../Middlewares/Third_Party/LwIP/src/core/pbuf.c ****         LWIP_ASSERT("pc->custom_free_function != NULL", pc->custom_free_function != NULL);
 1042              		.loc 1 766 9 is_stmt 1 view .LVU300
 1043              	.LVL89:
 767:../../Middlewares/Third_Party/LwIP/src/core/pbuf.c ****         pc->custom_free_function(p);
 1044              		.loc 1 767 9 view .LVU301
 767:../../Middlewares/Third_Party/LwIP/src/core/pbuf.c ****         pc->custom_free_function(p);
 1045              		.loc 1 767 9 view .LVU302
 1046 0060 2369     		ldr	r3, [r4, #16]
 1047              	.LVL90:
 767:../../Middlewares/Third_Party/LwIP/src/core/pbuf.c ****         pc->custom_free_function(p);
 1048              		.loc 1 767 9 is_stmt 0 view .LVU303
 1049 0062 002B     		cmp	r3, #0
 1050 0064 E3D1     		bne	.L75
 767:../../Middlewares/Third_Party/LwIP/src/core/pbuf.c ****         pc->custom_free_function(p);
 1051              		.loc 1 767 9 is_stmt 1 discriminator 1 view .LVU304
 767:../../Middlewares/Third_Party/LwIP/src/core/pbuf.c ****         pc->custom_free_function(p);
 1052              		.loc 1 767 9 discriminator 1 view .LVU305
 1053 0066 114B     		ldr	r3, .L87
 1054 0068 40F2FF22 		movw	r2, #767
 1055 006c 1349     		ldr	r1, .L87+16
 1056 006e 1148     		ldr	r0, .L87+8
 1057 0070 FFF7FEFF 		bl	printf
 1058              	.LVL91:
 767:../../Middlewares/Third_Party/LwIP/src/core/pbuf.c ****         pc->custom_free_function(p);
 1059              		.loc 1 767 9 is_stmt 0 discriminator 1 view .LVU306
 1060 0074 DBE7     		b	.L75
 1061              	.LVL92:
 1062              	.L74:
 767:../../Middlewares/Third_Party/LwIP/src/core/pbuf.c ****         pc->custom_free_function(p);
 1063              		.loc 1 767 9 discriminator 1 view .LVU307
 1064              	.LBE4:
 773:../../Middlewares/Third_Party/LwIP/src/core/pbuf.c ****           memp_free(MEMP_PBUF_POOL, p);
 1065              		.loc 1 773 9 is_stmt 1 view .LVU308
 773:../../Middlewares/Third_Party/LwIP/src/core/pbuf.c ****           memp_free(MEMP_PBUF_POOL, p);
 1066              		.loc 1 773 12 is_stmt 0 view .LVU309
 1067 0076 022B     		cmp	r3, #2
 1068 0078 06D0     		beq	.L85
 776:../../Middlewares/Third_Party/LwIP/src/core/pbuf.c ****           memp_free(MEMP_PBUF, p);
 1069              		.loc 1 776 16 is_stmt 1 view .LVU310
 776:../../Middlewares/Third_Party/LwIP/src/core/pbuf.c ****           memp_free(MEMP_PBUF, p);
 1070              		.loc 1 776 19 is_stmt 0 view .LVU311
 1071 007a 012B     		cmp	r3, #1
 1072 007c 09D0     		beq	.L86
ARM GAS  /tmp/cc8sHRun.s 			page 45


 779:../../Middlewares/Third_Party/LwIP/src/core/pbuf.c ****           mem_free(p);
 1073              		.loc 1 779 16 is_stmt 1 view .LVU312
 779:../../Middlewares/Third_Party/LwIP/src/core/pbuf.c ****           mem_free(p);
 1074              		.loc 1 779 19 is_stmt 0 view .LVU313
 1075 007e 6BB9     		cbnz	r3, .L79
 780:../../Middlewares/Third_Party/LwIP/src/core/pbuf.c ****         } else {
 1076              		.loc 1 780 11 is_stmt 1 view .LVU314
 1077 0080 2046     		mov	r0, r4
 1078 0082 FFF7FEFF 		bl	mem_free
 1079              	.LVL93:
 780:../../Middlewares/Third_Party/LwIP/src/core/pbuf.c ****         } else {
 1080              		.loc 1 780 11 is_stmt 0 view .LVU315
 1081 0086 D5E7     		b	.L76
 1082              	.LVL94:
 1083              	.L85:
 774:../../Middlewares/Third_Party/LwIP/src/core/pbuf.c ****           /* is this a ROM or RAM referencing pbuf? */
 1084              		.loc 1 774 11 is_stmt 1 view .LVU316
 1085 0088 2146     		mov	r1, r4
 1086 008a 0820     		movs	r0, #8
 1087 008c FFF7FEFF 		bl	memp_free
 1088              	.LVL95:
 774:../../Middlewares/Third_Party/LwIP/src/core/pbuf.c ****           /* is this a ROM or RAM referencing pbuf? */
 1089              		.loc 1 774 11 is_stmt 0 view .LVU317
 1090 0090 D0E7     		b	.L76
 1091              	.LVL96:
 1092              	.L86:
 777:../../Middlewares/Third_Party/LwIP/src/core/pbuf.c ****           /* type == PBUF_RAM */
 1093              		.loc 1 777 11 is_stmt 1 view .LVU318
 1094 0092 2146     		mov	r1, r4
 1095 0094 0720     		movs	r0, #7
 1096 0096 FFF7FEFF 		bl	memp_free
 1097              	.LVL97:
 777:../../Middlewares/Third_Party/LwIP/src/core/pbuf.c ****           /* type == PBUF_RAM */
 1098              		.loc 1 777 11 is_stmt 0 view .LVU319
 1099 009a CBE7     		b	.L76
 1100              	.LVL98:
 1101              	.L79:
 783:../../Middlewares/Third_Party/LwIP/src/core/pbuf.c ****         }
 1102              		.loc 1 783 11 is_stmt 1 view .LVU320
 783:../../Middlewares/Third_Party/LwIP/src/core/pbuf.c ****         }
 1103              		.loc 1 783 11 view .LVU321
 783:../../Middlewares/Third_Party/LwIP/src/core/pbuf.c ****         }
 1104              		.loc 1 783 11 discriminator 1 view .LVU322
 783:../../Middlewares/Third_Party/LwIP/src/core/pbuf.c ****         }
 1105              		.loc 1 783 11 discriminator 1 view .LVU323
 1106 009c 034B     		ldr	r3, .L87
 1107              	.LVL99:
 783:../../Middlewares/Third_Party/LwIP/src/core/pbuf.c ****         }
 1108              		.loc 1 783 11 is_stmt 0 discriminator 1 view .LVU324
 1109 009e 40F20F32 		movw	r2, #783
 1110 00a2 0749     		ldr	r1, .L87+20
 1111 00a4 0348     		ldr	r0, .L87+8
 1112 00a6 FFF7FEFF 		bl	printf
 1113              	.LVL100:
 783:../../Middlewares/Third_Party/LwIP/src/core/pbuf.c ****         }
 1114              		.loc 1 783 11 discriminator 1 view .LVU325
 1115 00aa C3E7     		b	.L76
ARM GAS  /tmp/cc8sHRun.s 			page 46


 1116              	.L88:
 1117              		.align	2
 1118              	.L87:
 1119 00ac 00000000 		.word	.LC0
 1120 00b0 34000000 		.word	.LC1
 1121 00b4 40000000 		.word	.LC2
 1122 00b8 00000000 		.word	.LC5
 1123 00bc 18000000 		.word	.LC6
 1124 00c0 3C000000 		.word	.LC7
 1125              	.LBE5:
 1126              		.cfi_endproc
 1127              	.LFE185:
 1129              		.section	.rodata.pbuf_alloc.str1.4,"aMS",%progbits,1
 1130              		.align	2
 1131              	.LC8:
 1132 0000 70627566 		.ascii	"pbuf_alloc: pbuf q->payload properly aligned\000"
 1132      5F616C6C 
 1132      6F633A20 
 1132      70627566 
 1132      20712D3E 
 1133 002d 000000   		.align	2
 1134              	.LC9:
 1135 0030 50425546 		.ascii	"PBUF_POOL_BUFSIZE must be bigger than MEM_ALIGNMENT"
 1135      5F504F4F 
 1135      4C5F4255 
 1135      4653495A 
 1135      45206D75 
 1136 0063 00       		.ascii	"\000"
 1137              		.align	2
 1138              	.LC10:
 1139 0064 70627566 		.ascii	"pbuf_alloc: pbuf->payload properly aligned\000"
 1139      5F616C6C 
 1139      6F633A20 
 1139      70627566 
 1139      2D3E7061 
 1140 008f 00       		.align	2
 1141              	.LC11:
 1142 0090 70627566 		.ascii	"pbuf_alloc: erroneous type\000"
 1142      5F616C6C 
 1142      6F633A20 
 1142      6572726F 
 1142      6E656F75 
 1143              		.section	.text.pbuf_alloc,"ax",%progbits
 1144              		.align	1
 1145              		.global	pbuf_alloc
 1146              		.syntax unified
 1147              		.thumb
 1148              		.thumb_func
 1150              	pbuf_alloc:
 1151              	.LVL101:
 1152              	.LFB173:
 225:../../Middlewares/Third_Party/LwIP/src/core/pbuf.c ****   struct pbuf *p;
 1153              		.loc 1 225 1 is_stmt 1 view -0
 1154              		.cfi_startproc
 1155              		@ args = 0, pretend = 0, frame = 0
 1156              		@ frame_needed = 0, uses_anonymous_args = 0
 225:../../Middlewares/Third_Party/LwIP/src/core/pbuf.c ****   struct pbuf *p;
ARM GAS  /tmp/cc8sHRun.s 			page 47


 1157              		.loc 1 225 1 is_stmt 0 view .LVU327
 1158 0000 2DE9F047 		push	{r4, r5, r6, r7, r8, r9, r10, lr}
 1159              	.LCFI19:
 1160              		.cfi_def_cfa_offset 32
 1161              		.cfi_offset 4, -32
 1162              		.cfi_offset 5, -28
 1163              		.cfi_offset 6, -24
 1164              		.cfi_offset 7, -20
 1165              		.cfi_offset 8, -16
 1166              		.cfi_offset 9, -12
 1167              		.cfi_offset 10, -8
 1168              		.cfi_offset 14, -4
 1169 0004 82B0     		sub	sp, sp, #8
 1170              	.LCFI20:
 1171              		.cfi_def_cfa_offset 40
 1172 0006 0E46     		mov	r6, r1
 1173 0008 9046     		mov	r8, r2
 226:../../Middlewares/Third_Party/LwIP/src/core/pbuf.c ****   u16_t offset = (u16_t)layer;
 1174              		.loc 1 226 3 is_stmt 1 view .LVU328
 227:../../Middlewares/Third_Party/LwIP/src/core/pbuf.c ****   LWIP_DEBUGF(PBUF_DEBUG | LWIP_DBG_TRACE, ("pbuf_alloc(length=%"U16_F")\n", length));
 1175              		.loc 1 227 3 view .LVU329
 1176              	.LVL102:
 228:../../Middlewares/Third_Party/LwIP/src/core/pbuf.c **** 
 1177              		.loc 1 228 86 view .LVU330
 230:../../Middlewares/Third_Party/LwIP/src/core/pbuf.c ****     case PBUF_REF: /* fall through */
 1178              		.loc 1 230 3 view .LVU331
 1179 000a B2F5C17F 		cmp	r2, #386
 1180 000e 4DD0     		beq	.L101
 1181 0010 0446     		mov	r4, r0
 1182 0012 0DD8     		bhi	.L91
 1183 0014 012A     		cmp	r2, #1
 1184 0016 3FD0     		beq	.L92
 1185 0018 412A     		cmp	r2, #65
 1186 001a 3DD0     		beq	.L92
 1187              	.L93:
 295:../../Middlewares/Third_Party/LwIP/src/core/pbuf.c ****       return NULL;
 1188              		.loc 1 295 7 view .LVU332
 295:../../Middlewares/Third_Party/LwIP/src/core/pbuf.c ****       return NULL;
 1189              		.loc 1 295 7 view .LVU333
 295:../../Middlewares/Third_Party/LwIP/src/core/pbuf.c ****       return NULL;
 1190              		.loc 1 295 7 discriminator 1 view .LVU334
 295:../../Middlewares/Third_Party/LwIP/src/core/pbuf.c ****       return NULL;
 1191              		.loc 1 295 7 discriminator 1 view .LVU335
 1192 001c 494B     		ldr	r3, .L108
 1193 001e 40F22712 		movw	r2, #295
 1194              	.LVL103:
 295:../../Middlewares/Third_Party/LwIP/src/core/pbuf.c ****       return NULL;
 1195              		.loc 1 295 7 is_stmt 0 discriminator 1 view .LVU336
 1196 0022 4949     		ldr	r1, .L108+4
 1197              	.LVL104:
 295:../../Middlewares/Third_Party/LwIP/src/core/pbuf.c ****       return NULL;
 1198              		.loc 1 295 7 discriminator 1 view .LVU337
 1199 0024 4948     		ldr	r0, .L108+8
 1200              	.LVL105:
 295:../../Middlewares/Third_Party/LwIP/src/core/pbuf.c ****       return NULL;
 1201              		.loc 1 295 7 discriminator 1 view .LVU338
 1202 0026 FFF7FEFF 		bl	printf
ARM GAS  /tmp/cc8sHRun.s 			page 48


 1203              	.LVL106:
 295:../../Middlewares/Third_Party/LwIP/src/core/pbuf.c ****       return NULL;
 1204              		.loc 1 295 7 is_stmt 1 discriminator 3 view .LVU339
 295:../../Middlewares/Third_Party/LwIP/src/core/pbuf.c ****       return NULL;
 1205              		.loc 1 295 7 discriminator 3 view .LVU340
 296:../../Middlewares/Third_Party/LwIP/src/core/pbuf.c ****   }
 1206              		.loc 1 296 7 view .LVU341
 296:../../Middlewares/Third_Party/LwIP/src/core/pbuf.c ****   }
 1207              		.loc 1 296 14 is_stmt 0 view .LVU342
 1208 002a 4FF00009 		mov	r9, #0
 1209 002e 39E0     		b	.L89
 1210              	.LVL107:
 1211              	.L91:
 230:../../Middlewares/Third_Party/LwIP/src/core/pbuf.c ****     case PBUF_REF: /* fall through */
 1212              		.loc 1 230 3 view .LVU343
 1213 0030 B2F5207F 		cmp	r2, #640
 1214 0034 F2D1     		bne	.L93
 1215              	.LBB6:
 274:../../Middlewares/Third_Party/LwIP/src/core/pbuf.c ****       mem_size_t alloc_len = (mem_size_t)(LWIP_MEM_ALIGN_SIZE(SIZEOF_STRUCT_PBUF) + payload_len);
 1216              		.loc 1 274 7 is_stmt 1 view .LVU344
 274:../../Middlewares/Third_Party/LwIP/src/core/pbuf.c ****       mem_size_t alloc_len = (mem_size_t)(LWIP_MEM_ALIGN_SIZE(SIZEOF_STRUCT_PBUF) + payload_len);
 1217              		.loc 1 274 35 is_stmt 0 view .LVU345
 1218 0036 C11C     		adds	r1, r0, #3
 1219              	.LVL108:
 274:../../Middlewares/Third_Party/LwIP/src/core/pbuf.c ****       mem_size_t alloc_len = (mem_size_t)(LWIP_MEM_ALIGN_SIZE(SIZEOF_STRUCT_PBUF) + payload_len);
 1220              		.loc 1 274 35 view .LVU346
 1221 0038 01F4FE71 		and	r1, r1, #508
 274:../../Middlewares/Third_Party/LwIP/src/core/pbuf.c ****       mem_size_t alloc_len = (mem_size_t)(LWIP_MEM_ALIGN_SIZE(SIZEOF_STRUCT_PBUF) + payload_len);
 1222              		.loc 1 274 65 view .LVU347
 1223 003c F21C     		adds	r2, r6, #3
 1224              	.LVL109:
 274:../../Middlewares/Third_Party/LwIP/src/core/pbuf.c ****       mem_size_t alloc_len = (mem_size_t)(LWIP_MEM_ALIGN_SIZE(SIZEOF_STRUCT_PBUF) + payload_len);
 1225              		.loc 1 274 65 view .LVU348
 1226 003e 93B2     		uxth	r3, r2
 1227 0040 23F00303 		bic	r3, r3, #3
 274:../../Middlewares/Third_Party/LwIP/src/core/pbuf.c ****       mem_size_t alloc_len = (mem_size_t)(LWIP_MEM_ALIGN_SIZE(SIZEOF_STRUCT_PBUF) + payload_len);
 1228              		.loc 1 274 13 view .LVU349
 1229 0044 0B44     		add	r3, r3, r1
 1230 0046 9BB2     		uxth	r3, r3
 1231              	.LVL110:
 275:../../Middlewares/Third_Party/LwIP/src/core/pbuf.c **** 
 1232              		.loc 1 275 7 is_stmt 1 view .LVU350
 275:../../Middlewares/Third_Party/LwIP/src/core/pbuf.c **** 
 1233              		.loc 1 275 18 is_stmt 0 view .LVU351
 1234 0048 03F11000 		add	r0, r3, #16
 1235              	.LVL111:
 275:../../Middlewares/Third_Party/LwIP/src/core/pbuf.c **** 
 1236              		.loc 1 275 18 view .LVU352
 1237 004c 80B2     		uxth	r0, r0
 1238              	.LVL112:
 278:../../Middlewares/Third_Party/LwIP/src/core/pbuf.c ****           (alloc_len < LWIP_MEM_ALIGN_SIZE(length))) {
 1239              		.loc 1 278 7 is_stmt 1 view .LVU353
 278:../../Middlewares/Third_Party/LwIP/src/core/pbuf.c ****           (alloc_len < LWIP_MEM_ALIGN_SIZE(length))) {
 1240              		.loc 1 278 26 is_stmt 0 view .LVU354
 1241 004e 22F00302 		bic	r2, r2, #3
 278:../../Middlewares/Third_Party/LwIP/src/core/pbuf.c ****           (alloc_len < LWIP_MEM_ALIGN_SIZE(length))) {
 1242              		.loc 1 278 10 view .LVU355
ARM GAS  /tmp/cc8sHRun.s 			page 49


 1243 0052 9342     		cmp	r3, r2
 1244 0054 6FD3     		bcc	.L103
 278:../../Middlewares/Third_Party/LwIP/src/core/pbuf.c ****           (alloc_len < LWIP_MEM_ALIGN_SIZE(length))) {
 1245              		.loc 1 278 55 discriminator 1 view .LVU356
 1246 0056 8242     		cmp	r2, r0
 1247 0058 70D8     		bhi	.L104
 284:../../Middlewares/Third_Party/LwIP/src/core/pbuf.c ****       if (p == NULL) {
 1248              		.loc 1 284 7 is_stmt 1 view .LVU357
 284:../../Middlewares/Third_Party/LwIP/src/core/pbuf.c ****       if (p == NULL) {
 1249              		.loc 1 284 26 is_stmt 0 view .LVU358
 1250 005a FFF7FEFF 		bl	mem_malloc
 1251              	.LVL113:
 285:../../Middlewares/Third_Party/LwIP/src/core/pbuf.c ****         return NULL;
 1252              		.loc 1 285 7 is_stmt 1 view .LVU359
 285:../../Middlewares/Third_Party/LwIP/src/core/pbuf.c ****         return NULL;
 1253              		.loc 1 285 10 is_stmt 0 view .LVU360
 1254 005e 8146     		mov	r9, r0
 1255 0060 00B3     		cbz	r0, .L89
 288:../../Middlewares/Third_Party/LwIP/src/core/pbuf.c ****                              length, length, type, 0);
 1256              		.loc 1 288 7 is_stmt 1 view .LVU361
 288:../../Middlewares/Third_Party/LwIP/src/core/pbuf.c ****                              length, length, type, 0);
 1257              		.loc 1 288 33 is_stmt 0 view .LVU362
 1258 0062 04F11001 		add	r1, r4, #16
 1259 0066 0144     		add	r1, r1, r0
 1260 0068 0331     		adds	r1, r1, #3
 288:../../Middlewares/Third_Party/LwIP/src/core/pbuf.c ****                              length, length, type, 0);
 1261              		.loc 1 288 7 view .LVU363
 1262 006a 0023     		movs	r3, #0
 1263 006c 0193     		str	r3, [sp, #4]
 1264 006e CDF80080 		str	r8, [sp]
 1265 0072 3346     		mov	r3, r6
 1266 0074 3246     		mov	r2, r6
 1267 0076 21F00301 		bic	r1, r1, #3
 1268 007a FFF7FEFF 		bl	pbuf_init_alloced_pbuf
 1269              	.LVL114:
 290:../../Middlewares/Third_Party/LwIP/src/core/pbuf.c ****                   ((mem_ptr_t)p->payload % MEM_ALIGNMENT) == 0);
 1270              		.loc 1 290 7 is_stmt 1 view .LVU364
 290:../../Middlewares/Third_Party/LwIP/src/core/pbuf.c ****                   ((mem_ptr_t)p->payload % MEM_ALIGNMENT) == 0);
 1271              		.loc 1 290 7 view .LVU365
 1272 007e D9F80430 		ldr	r3, [r9, #4]
 1273 0082 13F0030F 		tst	r3, #3
 1274 0086 0DD0     		beq	.L89
 290:../../Middlewares/Third_Party/LwIP/src/core/pbuf.c ****                   ((mem_ptr_t)p->payload % MEM_ALIGNMENT) == 0);
 1275              		.loc 1 290 7 discriminator 1 view .LVU366
 290:../../Middlewares/Third_Party/LwIP/src/core/pbuf.c ****                   ((mem_ptr_t)p->payload % MEM_ALIGNMENT) == 0);
 1276              		.loc 1 290 7 discriminator 1 view .LVU367
 1277 0088 2E4B     		ldr	r3, .L108
 1278 008a 4FF49172 		mov	r2, #290
 1279 008e 3049     		ldr	r1, .L108+12
 1280 0090 2E48     		ldr	r0, .L108+8
 1281 0092 FFF7FEFF 		bl	printf
 1282              	.LVL115:
 1283 0096 05E0     		b	.L89
 1284              	.LVL116:
 1285              	.L92:
 290:../../Middlewares/Third_Party/LwIP/src/core/pbuf.c ****                   ((mem_ptr_t)p->payload % MEM_ALIGNMENT) == 0);
 1286              		.loc 1 290 7 is_stmt 0 discriminator 1 view .LVU368
ARM GAS  /tmp/cc8sHRun.s 			page 50


 1287              	.LBE6:
 233:../../Middlewares/Third_Party/LwIP/src/core/pbuf.c ****       break;
 1288              		.loc 1 233 7 is_stmt 1 view .LVU369
 233:../../Middlewares/Third_Party/LwIP/src/core/pbuf.c ****       break;
 1289              		.loc 1 233 11 is_stmt 0 view .LVU370
 1290 0098 4246     		mov	r2, r8
 1291              	.LVL117:
 233:../../Middlewares/Third_Party/LwIP/src/core/pbuf.c ****       break;
 1292              		.loc 1 233 11 view .LVU371
 1293 009a 3146     		mov	r1, r6
 1294              	.LVL118:
 233:../../Middlewares/Third_Party/LwIP/src/core/pbuf.c ****       break;
 1295              		.loc 1 233 11 view .LVU372
 1296 009c 0020     		movs	r0, #0
 1297              	.LVL119:
 233:../../Middlewares/Third_Party/LwIP/src/core/pbuf.c ****       break;
 1298              		.loc 1 233 11 view .LVU373
 1299 009e FFF7FEFF 		bl	pbuf_alloc_reference
 1300              	.LVL120:
 1301 00a2 8146     		mov	r9, r0
 1302              	.LVL121:
 234:../../Middlewares/Third_Party/LwIP/src/core/pbuf.c ****     case PBUF_POOL: {
 1303              		.loc 1 234 7 is_stmt 1 view .LVU374
 1304              	.L89:
 300:../../Middlewares/Third_Party/LwIP/src/core/pbuf.c **** 
 1305              		.loc 1 300 1 is_stmt 0 view .LVU375
 1306 00a4 4846     		mov	r0, r9
 1307 00a6 02B0     		add	sp, sp, #8
 1308              	.LCFI21:
 1309              		.cfi_remember_state
 1310              		.cfi_def_cfa_offset 32
 1311              		@ sp needed
 1312 00a8 BDE8F087 		pop	{r4, r5, r6, r7, r8, r9, r10, pc}
 1313              	.LVL122:
 1314              	.L101:
 1315              	.LCFI22:
 1316              		.cfi_restore_state
 300:../../Middlewares/Third_Party/LwIP/src/core/pbuf.c **** 
 1317              		.loc 1 300 1 view .LVU376
 1318 00ac 0546     		mov	r5, r0
 230:../../Middlewares/Third_Party/LwIP/src/core/pbuf.c ****     case PBUF_REF: /* fall through */
 1319              		.loc 1 230 3 view .LVU377
 1320 00ae 0027     		movs	r7, #0
 1321 00b0 B946     		mov	r9, r7
 1322 00b2 1AE0     		b	.L90
 1323              	.LVL123:
 1324              	.L106:
 1325              	.LBB7:
 1326              	.LBB8:
 245:../../Middlewares/Third_Party/LwIP/src/core/pbuf.c ****           /* free chain so far allocated */
 1327              		.loc 1 245 11 is_stmt 1 view .LVU378
 1328 00b4 FFF7FEFF 		bl	pbuf_pool_is_empty
 1329              	.LVL124:
 247:../../Middlewares/Third_Party/LwIP/src/core/pbuf.c ****             pbuf_free(p);
 1330              		.loc 1 247 11 view .LVU379
 247:../../Middlewares/Third_Party/LwIP/src/core/pbuf.c ****             pbuf_free(p);
 1331              		.loc 1 247 14 is_stmt 0 view .LVU380
ARM GAS  /tmp/cc8sHRun.s 			page 51


 1332 00b8 B9F1000F 		cmp	r9, #0
 1333 00bc 02D0     		beq	.L97
 248:../../Middlewares/Third_Party/LwIP/src/core/pbuf.c ****           }
 1334              		.loc 1 248 13 is_stmt 1 view .LVU381
 1335 00be 4846     		mov	r0, r9
 1336 00c0 FFF7FEFF 		bl	pbuf_free
 1337              	.LVL125:
 1338              	.L97:
 251:../../Middlewares/Third_Party/LwIP/src/core/pbuf.c ****         }
 1339              		.loc 1 251 11 view .LVU382
 251:../../Middlewares/Third_Party/LwIP/src/core/pbuf.c ****         }
 1340              		.loc 1 251 18 is_stmt 0 view .LVU383
 1341 00c4 B946     		mov	r9, r7
 1342              	.LVL126:
 251:../../Middlewares/Third_Party/LwIP/src/core/pbuf.c ****         }
 1343              		.loc 1 251 18 view .LVU384
 1344 00c6 EDE7     		b	.L89
 1345              	.LVL127:
 1346              	.L107:
 256:../../Middlewares/Third_Party/LwIP/src/core/pbuf.c ****                     ((mem_ptr_t)q->payload % MEM_ALIGNMENT) == 0);
 1347              		.loc 1 256 9 is_stmt 1 discriminator 1 view .LVU385
 256:../../Middlewares/Third_Party/LwIP/src/core/pbuf.c ****                     ((mem_ptr_t)q->payload % MEM_ALIGNMENT) == 0);
 1348              		.loc 1 256 9 discriminator 1 view .LVU386
 1349 00c8 1E4B     		ldr	r3, .L108
 1350 00ca 4FF48072 		mov	r2, #256
 1351 00ce 2149     		ldr	r1, .L108+16
 1352 00d0 1E48     		ldr	r0, .L108+8
 1353 00d2 FFF7FEFF 		bl	printf
 1354              	.LVL128:
 256:../../Middlewares/Third_Party/LwIP/src/core/pbuf.c ****                     ((mem_ptr_t)q->payload % MEM_ALIGNMENT) == 0);
 1355              		.loc 1 256 9 discriminator 3 view .LVU387
 256:../../Middlewares/Third_Party/LwIP/src/core/pbuf.c ****                     ((mem_ptr_t)q->payload % MEM_ALIGNMENT) == 0);
 1356              		.loc 1 256 9 discriminator 3 view .LVU388
 258:../../Middlewares/Third_Party/LwIP/src/core/pbuf.c ****                     (PBUF_POOL_BUFSIZE_ALIGNED - LWIP_MEM_ALIGN_SIZE(offset)) > 0 );
 1357              		.loc 1 258 9 view .LVU389
 258:../../Middlewares/Third_Party/LwIP/src/core/pbuf.c ****                     (PBUF_POOL_BUFSIZE_ALIGNED - LWIP_MEM_ALIGN_SIZE(offset)) > 0 );
 1358              		.loc 1 258 9 view .LVU390
 1359              	.L99:
 258:../../Middlewares/Third_Party/LwIP/src/core/pbuf.c ****                     (PBUF_POOL_BUFSIZE_ALIGNED - LWIP_MEM_ALIGN_SIZE(offset)) > 0 );
 1360              		.loc 1 258 9 discriminator 3 view .LVU391
 258:../../Middlewares/Third_Party/LwIP/src/core/pbuf.c ****                     (PBUF_POOL_BUFSIZE_ALIGNED - LWIP_MEM_ALIGN_SIZE(offset)) > 0 );
 1361              		.loc 1 258 9 discriminator 3 view .LVU392
 260:../../Middlewares/Third_Party/LwIP/src/core/pbuf.c ****           /* allocated head of pbuf chain (into p) */
 1362              		.loc 1 260 9 view .LVU393
 260:../../Middlewares/Third_Party/LwIP/src/core/pbuf.c ****           /* allocated head of pbuf chain (into p) */
 1363              		.loc 1 260 12 is_stmt 0 view .LVU394
 1364 00d6 B9F1000F 		cmp	r9, #0
 1365 00da 2AD0     		beq	.L102
 265:../../Middlewares/Third_Party/LwIP/src/core/pbuf.c ****         }
 1366              		.loc 1 265 11 is_stmt 1 view .LVU395
 265:../../Middlewares/Third_Party/LwIP/src/core/pbuf.c ****         }
 1367              		.loc 1 265 22 is_stmt 0 view .LVU396
 1368 00dc CAF80070 		str	r7, [r10]
 1369              	.LVL129:
 1370              	.L100:
 267:../../Middlewares/Third_Party/LwIP/src/core/pbuf.c ****         rem_len = (u16_t)(rem_len - qlen);
 1371              		.loc 1 267 9 is_stmt 1 view .LVU397
ARM GAS  /tmp/cc8sHRun.s 			page 52


 268:../../Middlewares/Third_Party/LwIP/src/core/pbuf.c ****         offset = 0;
 1372              		.loc 1 268 9 view .LVU398
 268:../../Middlewares/Third_Party/LwIP/src/core/pbuf.c ****         offset = 0;
 1373              		.loc 1 268 17 is_stmt 0 view .LVU399
 1374 00e0 341B     		subs	r4, r6, r4
 1375              	.LVL130:
 268:../../Middlewares/Third_Party/LwIP/src/core/pbuf.c ****         offset = 0;
 1376              		.loc 1 268 17 view .LVU400
 1377 00e2 A6B2     		uxth	r6, r4
 1378              	.LVL131:
 269:../../Middlewares/Third_Party/LwIP/src/core/pbuf.c ****       } while (rem_len > 0);
 1379              		.loc 1 269 9 is_stmt 1 view .LVU401
 269:../../Middlewares/Third_Party/LwIP/src/core/pbuf.c ****       } while (rem_len > 0);
 1380              		.loc 1 269 9 is_stmt 0 view .LVU402
 1381              	.LBE8:
 270:../../Middlewares/Third_Party/LwIP/src/core/pbuf.c ****       break;
 1382              		.loc 1 270 24 is_stmt 1 view .LVU403
 1383              	.LBB9:
 269:../../Middlewares/Third_Party/LwIP/src/core/pbuf.c ****       } while (rem_len > 0);
 1384              		.loc 1 269 16 is_stmt 0 view .LVU404
 1385 00e4 0025     		movs	r5, #0
 269:../../Middlewares/Third_Party/LwIP/src/core/pbuf.c ****       } while (rem_len > 0);
 1386              		.loc 1 269 16 view .LVU405
 1387              	.LBE9:
 270:../../Middlewares/Third_Party/LwIP/src/core/pbuf.c ****       break;
 1388              		.loc 1 270 24 view .LVU406
 1389 00e6 002E     		cmp	r6, #0
 1390 00e8 DCD0     		beq	.L89
 1391              	.LVL132:
 1392              	.L90:
 241:../../Middlewares/Third_Party/LwIP/src/core/pbuf.c ****         u16_t qlen;
 1393              		.loc 1 241 7 is_stmt 1 view .LVU407
 1394              	.LBB10:
 242:../../Middlewares/Third_Party/LwIP/src/core/pbuf.c ****         q = (struct pbuf *)memp_malloc(MEMP_PBUF_POOL);
 1395              		.loc 1 242 9 view .LVU408
 243:../../Middlewares/Third_Party/LwIP/src/core/pbuf.c ****         if (q == NULL) {
 1396              		.loc 1 243 9 view .LVU409
 1397 00ea BA46     		mov	r10, r7
 243:../../Middlewares/Third_Party/LwIP/src/core/pbuf.c ****         if (q == NULL) {
 1398              		.loc 1 243 28 is_stmt 0 view .LVU410
 1399 00ec 0820     		movs	r0, #8
 1400 00ee FFF7FEFF 		bl	memp_malloc
 1401              	.LVL133:
 244:../../Middlewares/Third_Party/LwIP/src/core/pbuf.c ****           PBUF_POOL_IS_EMPTY();
 1402              		.loc 1 244 9 is_stmt 1 view .LVU411
 244:../../Middlewares/Third_Party/LwIP/src/core/pbuf.c ****           PBUF_POOL_IS_EMPTY();
 1403              		.loc 1 244 12 is_stmt 0 view .LVU412
 1404 00f2 0746     		mov	r7, r0
 1405              	.LVL134:
 244:../../Middlewares/Third_Party/LwIP/src/core/pbuf.c ****           PBUF_POOL_IS_EMPTY();
 1406              		.loc 1 244 12 view .LVU413
 1407 00f4 0028     		cmp	r0, #0
 1408 00f6 DDD0     		beq	.L106
 253:../../Middlewares/Third_Party/LwIP/src/core/pbuf.c ****         pbuf_init_alloced_pbuf(q, LWIP_MEM_ALIGN((void *)((u8_t *)q + SIZEOF_STRUCT_PBUF + offset))
 1409              		.loc 1 253 9 is_stmt 1 view .LVU414
 253:../../Middlewares/Third_Party/LwIP/src/core/pbuf.c ****         pbuf_init_alloced_pbuf(q, LWIP_MEM_ALIGN((void *)((u8_t *)q + SIZEOF_STRUCT_PBUF + offset))
 1410              		.loc 1 253 16 is_stmt 0 view .LVU415
ARM GAS  /tmp/cc8sHRun.s 			page 53


 1411 00f8 EC1C     		adds	r4, r5, #3
 1412 00fa 24F00304 		bic	r4, r4, #3
 1413 00fe A4B2     		uxth	r4, r4
 1414 0100 C4F51474 		rsb	r4, r4, #592
 1415 0104 A4B2     		uxth	r4, r4
 253:../../Middlewares/Third_Party/LwIP/src/core/pbuf.c ****         pbuf_init_alloced_pbuf(q, LWIP_MEM_ALIGN((void *)((u8_t *)q + SIZEOF_STRUCT_PBUF + offset))
 1416              		.loc 1 253 14 view .LVU416
 1417 0106 B442     		cmp	r4, r6
 1418 0108 28BF     		it	cs
 1419 010a 3446     		movcs	r4, r6
 1420              	.LVL135:
 254:../../Middlewares/Third_Party/LwIP/src/core/pbuf.c ****                                rem_len, qlen, type, 0);
 1421              		.loc 1 254 9 is_stmt 1 view .LVU417
 254:../../Middlewares/Third_Party/LwIP/src/core/pbuf.c ****                                rem_len, qlen, type, 0);
 1422              		.loc 1 254 35 is_stmt 0 view .LVU418
 1423 010c 05F11001 		add	r1, r5, #16
 1424 0110 0144     		add	r1, r1, r0
 1425 0112 0331     		adds	r1, r1, #3
 254:../../Middlewares/Third_Party/LwIP/src/core/pbuf.c ****                                rem_len, qlen, type, 0);
 1426              		.loc 1 254 9 view .LVU419
 1427 0114 0023     		movs	r3, #0
 1428 0116 0193     		str	r3, [sp, #4]
 1429 0118 CDF80080 		str	r8, [sp]
 1430 011c 2346     		mov	r3, r4
 1431 011e 3246     		mov	r2, r6
 1432 0120 21F00301 		bic	r1, r1, #3
 1433 0124 FFF7FEFF 		bl	pbuf_init_alloced_pbuf
 1434              	.LVL136:
 256:../../Middlewares/Third_Party/LwIP/src/core/pbuf.c ****                     ((mem_ptr_t)q->payload % MEM_ALIGNMENT) == 0);
 1435              		.loc 1 256 9 is_stmt 1 view .LVU420
 256:../../Middlewares/Third_Party/LwIP/src/core/pbuf.c ****                     ((mem_ptr_t)q->payload % MEM_ALIGNMENT) == 0);
 1436              		.loc 1 256 9 view .LVU421
 1437 0128 7B68     		ldr	r3, [r7, #4]
 1438 012a 13F0030F 		tst	r3, #3
 1439 012e D2D0     		beq	.L99
 1440 0130 CAE7     		b	.L107
 1441              	.L102:
 262:../../Middlewares/Third_Party/LwIP/src/core/pbuf.c ****         } else {
 1442              		.loc 1 262 13 is_stmt 0 view .LVU422
 1443 0132 B946     		mov	r9, r7
 1444              	.LVL137:
 262:../../Middlewares/Third_Party/LwIP/src/core/pbuf.c ****         } else {
 1445              		.loc 1 262 13 view .LVU423
 1446 0134 D4E7     		b	.L100
 1447              	.LVL138:
 1448              	.L103:
 262:../../Middlewares/Third_Party/LwIP/src/core/pbuf.c ****         } else {
 1449              		.loc 1 262 13 view .LVU424
 1450              	.LBE10:
 1451              	.LBE7:
 1452              	.LBB11:
 280:../../Middlewares/Third_Party/LwIP/src/core/pbuf.c ****       }
 1453              		.loc 1 280 16 view .LVU425
 1454 0136 4FF00009 		mov	r9, #0
 1455 013a B3E7     		b	.L89
 1456              	.L104:
 1457 013c 4FF00009 		mov	r9, #0
ARM GAS  /tmp/cc8sHRun.s 			page 54


 1458 0140 B0E7     		b	.L89
 1459              	.L109:
 1460 0142 00BF     		.align	2
 1461              	.L108:
 1462 0144 00000000 		.word	.LC0
 1463 0148 90000000 		.word	.LC11
 1464 014c 40000000 		.word	.LC2
 1465 0150 64000000 		.word	.LC10
 1466 0154 00000000 		.word	.LC8
 1467              	.LBE11:
 1468              		.cfi_endproc
 1469              	.LFE173:
 1471              		.section	.rodata.pbuf_realloc.str1.4,"aMS",%progbits,1
 1472              		.align	2
 1473              	.LC12:
 1474 0000 70627566 		.ascii	"pbuf_realloc: p != NULL\000"
 1474      5F726561 
 1474      6C6C6F63 
 1474      3A207020 
 1474      213D204E 
 1475              		.align	2
 1476              	.LC13:
 1477 0018 70627566 		.ascii	"pbuf_realloc: q != NULL\000"
 1477      5F726561 
 1477      6C6C6F63 
 1477      3A207120 
 1477      213D204E 
 1478              		.align	2
 1479              	.LC14:
 1480 0030 6D656D5F 		.ascii	"mem_trim returned q == NULL\000"
 1480      7472696D 
 1480      20726574 
 1480      75726E65 
 1480      64207120 
 1481              		.section	.text.pbuf_realloc,"ax",%progbits
 1482              		.align	1
 1483              		.global	pbuf_realloc
 1484              		.syntax unified
 1485              		.thumb
 1486              		.thumb_func
 1488              	pbuf_realloc:
 1489              	.LVL139:
 1490              	.LFB176:
 403:../../Middlewares/Third_Party/LwIP/src/core/pbuf.c ****   struct pbuf *q;
 1491              		.loc 1 403 1 is_stmt 1 view -0
 1492              		.cfi_startproc
 1493              		@ args = 0, pretend = 0, frame = 0
 1494              		@ frame_needed = 0, uses_anonymous_args = 0
 403:../../Middlewares/Third_Party/LwIP/src/core/pbuf.c ****   struct pbuf *q;
 1495              		.loc 1 403 1 is_stmt 0 view .LVU427
 1496 0000 F8B5     		push	{r3, r4, r5, r6, r7, lr}
 1497              	.LCFI23:
 1498              		.cfi_def_cfa_offset 24
 1499              		.cfi_offset 3, -24
 1500              		.cfi_offset 4, -20
 1501              		.cfi_offset 5, -16
 1502              		.cfi_offset 6, -12
ARM GAS  /tmp/cc8sHRun.s 			page 55


 1503              		.cfi_offset 7, -8
 1504              		.cfi_offset 14, -4
 1505 0002 0E46     		mov	r6, r1
 404:../../Middlewares/Third_Party/LwIP/src/core/pbuf.c ****   u16_t rem_len; /* remaining length */
 1506              		.loc 1 404 3 is_stmt 1 view .LVU428
 405:../../Middlewares/Third_Party/LwIP/src/core/pbuf.c ****   u16_t shrink;
 1507              		.loc 1 405 3 view .LVU429
 406:../../Middlewares/Third_Party/LwIP/src/core/pbuf.c **** 
 1508              		.loc 1 406 3 view .LVU430
 408:../../Middlewares/Third_Party/LwIP/src/core/pbuf.c **** 
 1509              		.loc 1 408 3 view .LVU431
 408:../../Middlewares/Third_Party/LwIP/src/core/pbuf.c **** 
 1510              		.loc 1 408 3 view .LVU432
 1511 0004 0446     		mov	r4, r0
 1512 0006 B8B1     		cbz	r0, .L119
 1513              	.LVL140:
 1514              	.L111:
 408:../../Middlewares/Third_Party/LwIP/src/core/pbuf.c **** 
 1515              		.loc 1 408 3 discriminator 3 view .LVU433
 408:../../Middlewares/Third_Party/LwIP/src/core/pbuf.c **** 
 1516              		.loc 1 408 3 discriminator 3 view .LVU434
 411:../../Middlewares/Third_Party/LwIP/src/core/pbuf.c ****     /* enlarging not yet supported */
 1517              		.loc 1 411 3 view .LVU435
 411:../../Middlewares/Third_Party/LwIP/src/core/pbuf.c ****     /* enlarging not yet supported */
 1518              		.loc 1 411 19 is_stmt 0 view .LVU436
 1519 0008 2789     		ldrh	r7, [r4, #8]
 411:../../Middlewares/Third_Party/LwIP/src/core/pbuf.c ****     /* enlarging not yet supported */
 1520              		.loc 1 411 6 view .LVU437
 1521 000a B742     		cmp	r7, r6
 1522 000c 2ED9     		bls	.L110
 421:../../Middlewares/Third_Party/LwIP/src/core/pbuf.c ****   q = p;
 1523              		.loc 1 421 11 view .LVU438
 1524 000e 3546     		mov	r5, r6
 1525              	.LVL141:
 1526              	.L113:
 431:../../Middlewares/Third_Party/LwIP/src/core/pbuf.c ****   }
 1527              		.loc 1 431 5 is_stmt 1 discriminator 3 view .LVU439
 431:../../Middlewares/Third_Party/LwIP/src/core/pbuf.c ****   }
 1528              		.loc 1 431 5 discriminator 3 view .LVU440
 424:../../Middlewares/Third_Party/LwIP/src/core/pbuf.c ****     /* decrease remaining length by pbuf length */
 1529              		.loc 1 424 18 view .LVU441
 424:../../Middlewares/Third_Party/LwIP/src/core/pbuf.c ****     /* decrease remaining length by pbuf length */
 1530              		.loc 1 424 21 is_stmt 0 view .LVU442
 1531 0010 6389     		ldrh	r3, [r4, #10]
 424:../../Middlewares/Third_Party/LwIP/src/core/pbuf.c ****     /* decrease remaining length by pbuf length */
 1532              		.loc 1 424 18 view .LVU443
 1533 0012 AB42     		cmp	r3, r5
 1534 0014 18D2     		bcs	.L120
 426:../../Middlewares/Third_Party/LwIP/src/core/pbuf.c ****     /* decrease total length indicator */
 1535              		.loc 1 426 5 is_stmt 1 view .LVU444
 426:../../Middlewares/Third_Party/LwIP/src/core/pbuf.c ****     /* decrease total length indicator */
 1536              		.loc 1 426 13 is_stmt 0 view .LVU445
 1537 0016 EB1A     		subs	r3, r5, r3
 1538 0018 9DB2     		uxth	r5, r3
 1539              	.LVL142:
 428:../../Middlewares/Third_Party/LwIP/src/core/pbuf.c ****     /* proceed to next pbuf in chain */
 1540              		.loc 1 428 5 is_stmt 1 view .LVU446
ARM GAS  /tmp/cc8sHRun.s 			page 56


 428:../../Middlewares/Third_Party/LwIP/src/core/pbuf.c ****     /* proceed to next pbuf in chain */
 1541              		.loc 1 428 27 is_stmt 0 view .LVU447
 1542 001a 2389     		ldrh	r3, [r4, #8]
 428:../../Middlewares/Third_Party/LwIP/src/core/pbuf.c ****     /* proceed to next pbuf in chain */
 1543              		.loc 1 428 18 view .LVU448
 1544 001c F21B     		subs	r2, r6, r7
 1545 001e 1344     		add	r3, r3, r2
 428:../../Middlewares/Third_Party/LwIP/src/core/pbuf.c ****     /* proceed to next pbuf in chain */
 1546              		.loc 1 428 16 view .LVU449
 1547 0020 2381     		strh	r3, [r4, #8]	@ movhi
 430:../../Middlewares/Third_Party/LwIP/src/core/pbuf.c ****     LWIP_ASSERT("pbuf_realloc: q != NULL", q != NULL);
 1548              		.loc 1 430 5 is_stmt 1 view .LVU450
 430:../../Middlewares/Third_Party/LwIP/src/core/pbuf.c ****     LWIP_ASSERT("pbuf_realloc: q != NULL", q != NULL);
 1549              		.loc 1 430 7 is_stmt 0 view .LVU451
 1550 0022 2468     		ldr	r4, [r4]
 1551              	.LVL143:
 431:../../Middlewares/Third_Party/LwIP/src/core/pbuf.c ****   }
 1552              		.loc 1 431 5 is_stmt 1 view .LVU452
 431:../../Middlewares/Third_Party/LwIP/src/core/pbuf.c ****   }
 1553              		.loc 1 431 5 view .LVU453
 1554 0024 002C     		cmp	r4, #0
 1555 0026 F3D1     		bne	.L113
 431:../../Middlewares/Third_Party/LwIP/src/core/pbuf.c ****   }
 1556              		.loc 1 431 5 discriminator 1 view .LVU454
 431:../../Middlewares/Third_Party/LwIP/src/core/pbuf.c ****   }
 1557              		.loc 1 431 5 discriminator 1 view .LVU455
 1558 0028 1A4B     		ldr	r3, .L122
 1559 002a 40F2AF12 		movw	r2, #431
 1560 002e 1A49     		ldr	r1, .L122+4
 1561 0030 1A48     		ldr	r0, .L122+8
 1562 0032 FFF7FEFF 		bl	printf
 1563              	.LVL144:
 1564 0036 EBE7     		b	.L113
 1565              	.LVL145:
 1566              	.L119:
 408:../../Middlewares/Third_Party/LwIP/src/core/pbuf.c **** 
 1567              		.loc 1 408 3 discriminator 1 view .LVU456
 408:../../Middlewares/Third_Party/LwIP/src/core/pbuf.c **** 
 1568              		.loc 1 408 3 discriminator 1 view .LVU457
 1569 0038 164B     		ldr	r3, .L122
 1570 003a 4FF4CC72 		mov	r2, #408
 1571 003e 1849     		ldr	r1, .L122+12
 1572              	.LVL146:
 408:../../Middlewares/Third_Party/LwIP/src/core/pbuf.c **** 
 1573              		.loc 1 408 3 is_stmt 0 discriminator 1 view .LVU458
 1574 0040 1648     		ldr	r0, .L122+8
 1575              	.LVL147:
 408:../../Middlewares/Third_Party/LwIP/src/core/pbuf.c **** 
 1576              		.loc 1 408 3 discriminator 1 view .LVU459
 1577 0042 FFF7FEFF 		bl	printf
 1578              	.LVL148:
 1579 0046 DFE7     		b	.L111
 1580              	.LVL149:
 1581              	.L120:
 438:../../Middlewares/Third_Party/LwIP/src/core/pbuf.c **** #if LWIP_SUPPORT_CUSTOM_PBUF
 1582              		.loc 1 438 3 is_stmt 1 view .LVU460
 438:../../Middlewares/Third_Party/LwIP/src/core/pbuf.c **** #if LWIP_SUPPORT_CUSTOM_PBUF
ARM GAS  /tmp/cc8sHRun.s 			page 57


 1583              		.loc 1 438 7 is_stmt 0 view .LVU461
 1584 0048 227B     		ldrb	r2, [r4, #12]	@ zero_extendqisi2
 438:../../Middlewares/Third_Party/LwIP/src/core/pbuf.c **** #if LWIP_SUPPORT_CUSTOM_PBUF
 1585              		.loc 1 438 6 view .LVU462
 1586 004a 12F00F0F 		tst	r2, #15
 1587 004e 05D1     		bne	.L116
 438:../../Middlewares/Third_Party/LwIP/src/core/pbuf.c **** #if LWIP_SUPPORT_CUSTOM_PBUF
 1588              		.loc 1 438 65 discriminator 1 view .LVU463
 1589 0050 AB42     		cmp	r3, r5
 1590 0052 03D0     		beq	.L116
 440:../../Middlewares/Third_Party/LwIP/src/core/pbuf.c **** #endif /* LWIP_SUPPORT_CUSTOM_PBUF */
 1591              		.loc 1 440 13 view .LVU464
 1592 0054 637B     		ldrb	r3, [r4, #13]	@ zero_extendqisi2
 440:../../Middlewares/Third_Party/LwIP/src/core/pbuf.c **** #endif /* LWIP_SUPPORT_CUSTOM_PBUF */
 1593              		.loc 1 440 7 view .LVU465
 1594 0056 13F0020F 		tst	r3, #2
 1595 005a 08D0     		beq	.L121
 1596              	.L116:
 445:../../Middlewares/Third_Party/LwIP/src/core/pbuf.c ****   }
 1597              		.loc 1 445 5 is_stmt 1 discriminator 3 view .LVU466
 445:../../Middlewares/Third_Party/LwIP/src/core/pbuf.c ****   }
 1598              		.loc 1 445 5 discriminator 3 view .LVU467
 448:../../Middlewares/Third_Party/LwIP/src/core/pbuf.c ****   q->tot_len = q->len;
 1599              		.loc 1 448 3 view .LVU468
 448:../../Middlewares/Third_Party/LwIP/src/core/pbuf.c ****   q->tot_len = q->len;
 1600              		.loc 1 448 10 is_stmt 0 view .LVU469
 1601 005c 6581     		strh	r5, [r4, #10]	@ movhi
 449:../../Middlewares/Third_Party/LwIP/src/core/pbuf.c **** 
 1602              		.loc 1 449 3 is_stmt 1 view .LVU470
 449:../../Middlewares/Third_Party/LwIP/src/core/pbuf.c **** 
 1603              		.loc 1 449 14 is_stmt 0 view .LVU471
 1604 005e 2581     		strh	r5, [r4, #8]	@ movhi
 452:../../Middlewares/Third_Party/LwIP/src/core/pbuf.c ****     /* free remaining pbufs in chain */
 1605              		.loc 1 452 3 is_stmt 1 view .LVU472
 452:../../Middlewares/Third_Party/LwIP/src/core/pbuf.c ****     /* free remaining pbufs in chain */
 1606              		.loc 1 452 8 is_stmt 0 view .LVU473
 1607 0060 2068     		ldr	r0, [r4]
 452:../../Middlewares/Third_Party/LwIP/src/core/pbuf.c ****     /* free remaining pbufs in chain */
 1608              		.loc 1 452 6 view .LVU474
 1609 0062 08B1     		cbz	r0, .L117
 454:../../Middlewares/Third_Party/LwIP/src/core/pbuf.c ****   }
 1610              		.loc 1 454 5 is_stmt 1 view .LVU475
 1611 0064 FFF7FEFF 		bl	pbuf_free
 1612              	.LVL150:
 1613              	.L117:
 457:../../Middlewares/Third_Party/LwIP/src/core/pbuf.c **** 
 1614              		.loc 1 457 3 view .LVU476
 457:../../Middlewares/Third_Party/LwIP/src/core/pbuf.c **** 
 1615              		.loc 1 457 11 is_stmt 0 view .LVU477
 1616 0068 0023     		movs	r3, #0
 1617 006a 2360     		str	r3, [r4]
 1618              	.LVL151:
 1619              	.L110:
 459:../../Middlewares/Third_Party/LwIP/src/core/pbuf.c **** 
 1620              		.loc 1 459 1 view .LVU478
 1621 006c F8BD     		pop	{r3, r4, r5, r6, r7, pc}
 1622              	.LVL152:
ARM GAS  /tmp/cc8sHRun.s 			page 58


 1623              	.L121:
 444:../../Middlewares/Third_Party/LwIP/src/core/pbuf.c ****     LWIP_ASSERT("mem_trim returned q == NULL", q != NULL);
 1624              		.loc 1 444 5 is_stmt 1 view .LVU479
 444:../../Middlewares/Third_Party/LwIP/src/core/pbuf.c ****     LWIP_ASSERT("mem_trim returned q == NULL", q != NULL);
 1625              		.loc 1 444 59 is_stmt 0 view .LVU480
 1626 006e 6368     		ldr	r3, [r4, #4]
 444:../../Middlewares/Third_Party/LwIP/src/core/pbuf.c ****     LWIP_ASSERT("mem_trim returned q == NULL", q != NULL);
 1627              		.loc 1 444 69 view .LVU481
 1628 0070 1B1B     		subs	r3, r3, r4
 444:../../Middlewares/Third_Party/LwIP/src/core/pbuf.c ****     LWIP_ASSERT("mem_trim returned q == NULL", q != NULL);
 1629              		.loc 1 444 24 view .LVU482
 1630 0072 E918     		adds	r1, r5, r3
 1631 0074 89B2     		uxth	r1, r1
 1632 0076 2046     		mov	r0, r4
 1633 0078 FFF7FEFF 		bl	mem_trim
 1634              	.LVL153:
 445:../../Middlewares/Third_Party/LwIP/src/core/pbuf.c ****   }
 1635              		.loc 1 445 5 is_stmt 1 view .LVU483
 445:../../Middlewares/Third_Party/LwIP/src/core/pbuf.c ****   }
 1636              		.loc 1 445 5 view .LVU484
 1637 007c 0446     		mov	r4, r0
 1638 007e 0028     		cmp	r0, #0
 1639 0080 ECD1     		bne	.L116
 445:../../Middlewares/Third_Party/LwIP/src/core/pbuf.c ****   }
 1640              		.loc 1 445 5 discriminator 1 view .LVU485
 445:../../Middlewares/Third_Party/LwIP/src/core/pbuf.c ****   }
 1641              		.loc 1 445 5 discriminator 1 view .LVU486
 1642 0082 044B     		ldr	r3, .L122
 1643 0084 40F2BD12 		movw	r2, #445
 1644 0088 0649     		ldr	r1, .L122+16
 1645 008a 0448     		ldr	r0, .L122+8
 1646              	.LVL154:
 445:../../Middlewares/Third_Party/LwIP/src/core/pbuf.c ****   }
 1647              		.loc 1 445 5 is_stmt 0 discriminator 1 view .LVU487
 1648 008c FFF7FEFF 		bl	printf
 1649              	.LVL155:
 1650 0090 E4E7     		b	.L116
 1651              	.L123:
 1652 0092 00BF     		.align	2
 1653              	.L122:
 1654 0094 00000000 		.word	.LC0
 1655 0098 18000000 		.word	.LC13
 1656 009c 40000000 		.word	.LC2
 1657 00a0 00000000 		.word	.LC12
 1658 00a4 30000000 		.word	.LC14
 1659              		.cfi_endproc
 1660              	.LFE176:
 1662              		.section	.text.pbuf_free_header,"ax",%progbits
 1663              		.align	1
 1664              		.global	pbuf_free_header
 1665              		.syntax unified
 1666              		.thumb
 1667              		.thumb_func
 1669              	pbuf_free_header:
 1670              	.LVL156:
 1671              	.LFB184:
 672:../../Middlewares/Third_Party/LwIP/src/core/pbuf.c ****   struct pbuf *p = q;
ARM GAS  /tmp/cc8sHRun.s 			page 59


 1672              		.loc 1 672 1 is_stmt 1 view -0
 1673              		.cfi_startproc
 1674              		@ args = 0, pretend = 0, frame = 0
 1675              		@ frame_needed = 0, uses_anonymous_args = 0
 672:../../Middlewares/Third_Party/LwIP/src/core/pbuf.c ****   struct pbuf *p = q;
 1676              		.loc 1 672 1 is_stmt 0 view .LVU489
 1677 0000 70B5     		push	{r4, r5, r6, lr}
 1678              	.LCFI24:
 1679              		.cfi_def_cfa_offset 16
 1680              		.cfi_offset 4, -16
 1681              		.cfi_offset 5, -12
 1682              		.cfi_offset 6, -8
 1683              		.cfi_offset 14, -4
 1684 0002 0546     		mov	r5, r0
 1685 0004 0C46     		mov	r4, r1
 673:../../Middlewares/Third_Party/LwIP/src/core/pbuf.c ****   u16_t free_left = size;
 1686              		.loc 1 673 3 is_stmt 1 view .LVU490
 1687              	.LVL157:
 674:../../Middlewares/Third_Party/LwIP/src/core/pbuf.c ****   while (free_left && p) {
 1688              		.loc 1 674 3 view .LVU491
 675:../../Middlewares/Third_Party/LwIP/src/core/pbuf.c ****     if (free_left >= p->len) {
 1689              		.loc 1 675 3 view .LVU492
 675:../../Middlewares/Third_Party/LwIP/src/core/pbuf.c ****     if (free_left >= p->len) {
 1690              		.loc 1 675 9 is_stmt 0 view .LVU493
 1691 0006 04E0     		b	.L125
 1692              	.LVL158:
 1693              	.L126:
 683:../../Middlewares/Third_Party/LwIP/src/core/pbuf.c ****       free_left = 0;
 1694              		.loc 1 683 7 is_stmt 1 view .LVU494
 1695 0008 2146     		mov	r1, r4
 1696 000a 2846     		mov	r0, r5
 1697 000c FFF7FEFF 		bl	pbuf_remove_header
 1698              	.LVL159:
 684:../../Middlewares/Third_Party/LwIP/src/core/pbuf.c ****     }
 1699              		.loc 1 684 7 view .LVU495
 684:../../Middlewares/Third_Party/LwIP/src/core/pbuf.c ****     }
 1700              		.loc 1 684 17 is_stmt 0 view .LVU496
 1701 0010 0024     		movs	r4, #0
 1702              	.LVL160:
 1703              	.L125:
 675:../../Middlewares/Third_Party/LwIP/src/core/pbuf.c ****     if (free_left >= p->len) {
 1704              		.loc 1 675 20 is_stmt 1 view .LVU497
 675:../../Middlewares/Third_Party/LwIP/src/core/pbuf.c ****     if (free_left >= p->len) {
 1705              		.loc 1 675 10 is_stmt 0 view .LVU498
 1706 0012 231E     		subs	r3, r4, #0
 1707 0014 18BF     		it	ne
 1708 0016 0123     		movne	r3, #1
 675:../../Middlewares/Third_Party/LwIP/src/core/pbuf.c ****     if (free_left >= p->len) {
 1709              		.loc 1 675 20 view .LVU499
 1710 0018 6DB1     		cbz	r5, .L130
 675:../../Middlewares/Third_Party/LwIP/src/core/pbuf.c ****     if (free_left >= p->len) {
 1711              		.loc 1 675 20 view .LVU500
 1712 001a 63B1     		cbz	r3, .L130
 676:../../Middlewares/Third_Party/LwIP/src/core/pbuf.c ****       struct pbuf *f = p;
 1713              		.loc 1 676 5 is_stmt 1 view .LVU501
 676:../../Middlewares/Third_Party/LwIP/src/core/pbuf.c ****       struct pbuf *f = p;
 1714              		.loc 1 676 23 is_stmt 0 view .LVU502
ARM GAS  /tmp/cc8sHRun.s 			page 60


 1715 001c 6B89     		ldrh	r3, [r5, #10]
 676:../../Middlewares/Third_Party/LwIP/src/core/pbuf.c ****       struct pbuf *f = p;
 1716              		.loc 1 676 8 view .LVU503
 1717 001e A342     		cmp	r3, r4
 1718 0020 F2D8     		bhi	.L126
 1719              	.LBB12:
 677:../../Middlewares/Third_Party/LwIP/src/core/pbuf.c ****       free_left = (u16_t)(free_left - p->len);
 1720              		.loc 1 677 7 is_stmt 1 view .LVU504
 1721              	.LVL161:
 678:../../Middlewares/Third_Party/LwIP/src/core/pbuf.c ****       p = p->next;
 1722              		.loc 1 678 7 view .LVU505
 678:../../Middlewares/Third_Party/LwIP/src/core/pbuf.c ****       p = p->next;
 1723              		.loc 1 678 17 is_stmt 0 view .LVU506
 1724 0022 E41A     		subs	r4, r4, r3
 1725              	.LVL162:
 678:../../Middlewares/Third_Party/LwIP/src/core/pbuf.c ****       p = p->next;
 1726              		.loc 1 678 17 view .LVU507
 1727 0024 A4B2     		uxth	r4, r4
 1728              	.LVL163:
 679:../../Middlewares/Third_Party/LwIP/src/core/pbuf.c ****       f->next = 0;
 1729              		.loc 1 679 7 is_stmt 1 view .LVU508
 679:../../Middlewares/Third_Party/LwIP/src/core/pbuf.c ****       f->next = 0;
 1730              		.loc 1 679 9 is_stmt 0 view .LVU509
 1731 0026 2E68     		ldr	r6, [r5]
 1732              	.LVL164:
 680:../../Middlewares/Third_Party/LwIP/src/core/pbuf.c ****       pbuf_free(f);
 1733              		.loc 1 680 7 is_stmt 1 view .LVU510
 680:../../Middlewares/Third_Party/LwIP/src/core/pbuf.c ****       pbuf_free(f);
 1734              		.loc 1 680 15 is_stmt 0 view .LVU511
 1735 0028 0023     		movs	r3, #0
 1736 002a 2B60     		str	r3, [r5]
 681:../../Middlewares/Third_Party/LwIP/src/core/pbuf.c ****     } else {
 1737              		.loc 1 681 7 is_stmt 1 view .LVU512
 1738 002c 2846     		mov	r0, r5
 1739 002e FFF7FEFF 		bl	pbuf_free
 1740              	.LVL165:
 679:../../Middlewares/Third_Party/LwIP/src/core/pbuf.c ****       f->next = 0;
 1741              		.loc 1 679 9 is_stmt 0 view .LVU513
 1742 0032 3546     		mov	r5, r6
 1743              	.LVL166:
 679:../../Middlewares/Third_Party/LwIP/src/core/pbuf.c ****       f->next = 0;
 1744              		.loc 1 679 9 view .LVU514
 1745              	.LBE12:
 1746 0034 EDE7     		b	.L125
 1747              	.LVL167:
 1748              	.L130:
 687:../../Middlewares/Third_Party/LwIP/src/core/pbuf.c **** }
 1749              		.loc 1 687 3 is_stmt 1 view .LVU515
 688:../../Middlewares/Third_Party/LwIP/src/core/pbuf.c **** 
 1750              		.loc 1 688 1 is_stmt 0 view .LVU516
 1751 0036 2846     		mov	r0, r5
 1752 0038 70BD     		pop	{r4, r5, r6, pc}
 688:../../Middlewares/Third_Party/LwIP/src/core/pbuf.c **** 
 1753              		.loc 1 688 1 view .LVU517
 1754              		.cfi_endproc
 1755              	.LFE184:
 1757              		.section	.text.pbuf_clen,"ax",%progbits
ARM GAS  /tmp/cc8sHRun.s 			page 61


 1758              		.align	1
 1759              		.global	pbuf_clen
 1760              		.syntax unified
 1761              		.thumb
 1762              		.thumb_func
 1764              	pbuf_clen:
 1765              	.LVL168:
 1766              	.LFB186:
 810:../../Middlewares/Third_Party/LwIP/src/core/pbuf.c ****   u16_t len;
 1767              		.loc 1 810 1 is_stmt 1 view -0
 1768              		.cfi_startproc
 1769              		@ args = 0, pretend = 0, frame = 0
 1770              		@ frame_needed = 0, uses_anonymous_args = 0
 1771              		@ link register save eliminated.
 810:../../Middlewares/Third_Party/LwIP/src/core/pbuf.c ****   u16_t len;
 1772              		.loc 1 810 1 is_stmt 0 view .LVU519
 1773 0000 0346     		mov	r3, r0
 811:../../Middlewares/Third_Party/LwIP/src/core/pbuf.c **** 
 1774              		.loc 1 811 3 is_stmt 1 view .LVU520
 813:../../Middlewares/Third_Party/LwIP/src/core/pbuf.c ****   while (p != NULL) {
 1775              		.loc 1 813 3 view .LVU521
 1776              	.LVL169:
 814:../../Middlewares/Third_Party/LwIP/src/core/pbuf.c ****     ++len;
 1777              		.loc 1 814 3 view .LVU522
 813:../../Middlewares/Third_Party/LwIP/src/core/pbuf.c ****   while (p != NULL) {
 1778              		.loc 1 813 7 is_stmt 0 view .LVU523
 1779 0002 0020     		movs	r0, #0
 1780              	.LVL170:
 814:../../Middlewares/Third_Party/LwIP/src/core/pbuf.c ****     ++len;
 1781              		.loc 1 814 9 view .LVU524
 1782 0004 02E0     		b	.L133
 1783              	.LVL171:
 1784              	.L134:
 815:../../Middlewares/Third_Party/LwIP/src/core/pbuf.c ****     p = p->next;
 1785              		.loc 1 815 5 is_stmt 1 view .LVU525
 1786 0006 0130     		adds	r0, r0, #1
 1787              	.LVL172:
 815:../../Middlewares/Third_Party/LwIP/src/core/pbuf.c ****     p = p->next;
 1788              		.loc 1 815 5 is_stmt 0 view .LVU526
 1789 0008 80B2     		uxth	r0, r0
 1790              	.LVL173:
 816:../../Middlewares/Third_Party/LwIP/src/core/pbuf.c ****   }
 1791              		.loc 1 816 5 is_stmt 1 view .LVU527
 816:../../Middlewares/Third_Party/LwIP/src/core/pbuf.c ****   }
 1792              		.loc 1 816 7 is_stmt 0 view .LVU528
 1793 000a 1B68     		ldr	r3, [r3]
 1794              	.LVL174:
 1795              	.L133:
 814:../../Middlewares/Third_Party/LwIP/src/core/pbuf.c ****     ++len;
 1796              		.loc 1 814 12 is_stmt 1 view .LVU529
 1797 000c 002B     		cmp	r3, #0
 1798 000e FAD1     		bne	.L134
 818:../../Middlewares/Third_Party/LwIP/src/core/pbuf.c **** }
 1799              		.loc 1 818 3 view .LVU530
 819:../../Middlewares/Third_Party/LwIP/src/core/pbuf.c **** 
 1800              		.loc 1 819 1 is_stmt 0 view .LVU531
 1801 0010 7047     		bx	lr
ARM GAS  /tmp/cc8sHRun.s 			page 62


 1802              		.cfi_endproc
 1803              	.LFE186:
 1805              		.section	.rodata.pbuf_ref.str1.4,"aMS",%progbits,1
 1806              		.align	2
 1807              	.LC15:
 1808 0000 70627566 		.ascii	"pbuf ref overflow\000"
 1808      20726566 
 1808      206F7665 
 1808      72666C6F 
 1808      7700
 1809              		.section	.text.pbuf_ref,"ax",%progbits
 1810              		.align	1
 1811              		.global	pbuf_ref
 1812              		.syntax unified
 1813              		.thumb
 1814              		.thumb_func
 1816              	pbuf_ref:
 1817              	.LVL175:
 1818              	.LFB187:
 830:../../Middlewares/Third_Party/LwIP/src/core/pbuf.c ****   /* pbuf given? */
 1819              		.loc 1 830 1 is_stmt 1 view -0
 1820              		.cfi_startproc
 1821              		@ args = 0, pretend = 0, frame = 0
 1822              		@ frame_needed = 0, uses_anonymous_args = 0
 832:../../Middlewares/Third_Party/LwIP/src/core/pbuf.c ****     SYS_ARCH_SET(p->ref, (LWIP_PBUF_REF_T)(p->ref + 1));
 1823              		.loc 1 832 3 view .LVU533
 832:../../Middlewares/Third_Party/LwIP/src/core/pbuf.c ****     SYS_ARCH_SET(p->ref, (LWIP_PBUF_REF_T)(p->ref + 1));
 1824              		.loc 1 832 6 is_stmt 0 view .LVU534
 1825 0000 70B1     		cbz	r0, .L138
 830:../../Middlewares/Third_Party/LwIP/src/core/pbuf.c ****   /* pbuf given? */
 1826              		.loc 1 830 1 view .LVU535
 1827 0002 08B5     		push	{r3, lr}
 1828              	.LCFI25:
 1829              		.cfi_def_cfa_offset 8
 1830              		.cfi_offset 3, -8
 1831              		.cfi_offset 14, -4
 833:../../Middlewares/Third_Party/LwIP/src/core/pbuf.c ****     LWIP_ASSERT("pbuf ref overflow", p->ref > 0);
 1832              		.loc 1 833 5 is_stmt 1 view .LVU536
 833:../../Middlewares/Third_Party/LwIP/src/core/pbuf.c ****     LWIP_ASSERT("pbuf ref overflow", p->ref > 0);
 1833              		.loc 1 833 5 view .LVU537
 833:../../Middlewares/Third_Party/LwIP/src/core/pbuf.c ****     LWIP_ASSERT("pbuf ref overflow", p->ref > 0);
 1834              		.loc 1 833 5 view .LVU538
 833:../../Middlewares/Third_Party/LwIP/src/core/pbuf.c ****     LWIP_ASSERT("pbuf ref overflow", p->ref > 0);
 1835              		.loc 1 833 5 view .LVU539
 1836 0004 837B     		ldrb	r3, [r0, #14]	@ zero_extendqisi2
 1837 0006 0133     		adds	r3, r3, #1
 1838 0008 DBB2     		uxtb	r3, r3
 1839 000a 8373     		strb	r3, [r0, #14]
 833:../../Middlewares/Third_Party/LwIP/src/core/pbuf.c ****     LWIP_ASSERT("pbuf ref overflow", p->ref > 0);
 1840              		.loc 1 833 5 view .LVU540
 833:../../Middlewares/Third_Party/LwIP/src/core/pbuf.c ****     LWIP_ASSERT("pbuf ref overflow", p->ref > 0);
 1841              		.loc 1 833 5 view .LVU541
 834:../../Middlewares/Third_Party/LwIP/src/core/pbuf.c ****   }
 1842              		.loc 1 834 5 view .LVU542
 834:../../Middlewares/Third_Party/LwIP/src/core/pbuf.c ****   }
 1843              		.loc 1 834 5 view .LVU543
 1844 000c 03B1     		cbz	r3, .L141
ARM GAS  /tmp/cc8sHRun.s 			page 63


 1845              	.LVL176:
 1846              	.L135:
 836:../../Middlewares/Third_Party/LwIP/src/core/pbuf.c **** 
 1847              		.loc 1 836 1 is_stmt 0 view .LVU544
 1848 000e 08BD     		pop	{r3, pc}
 1849              	.LVL177:
 1850              	.L141:
 834:../../Middlewares/Third_Party/LwIP/src/core/pbuf.c ****   }
 1851              		.loc 1 834 5 is_stmt 1 discriminator 1 view .LVU545
 834:../../Middlewares/Third_Party/LwIP/src/core/pbuf.c ****   }
 1852              		.loc 1 834 5 discriminator 1 view .LVU546
 1853 0010 044B     		ldr	r3, .L142
 1854 0012 40F24232 		movw	r2, #834
 1855 0016 0449     		ldr	r1, .L142+4
 1856 0018 0448     		ldr	r0, .L142+8
 1857              	.LVL178:
 834:../../Middlewares/Third_Party/LwIP/src/core/pbuf.c ****   }
 1858              		.loc 1 834 5 is_stmt 0 discriminator 1 view .LVU547
 1859 001a FFF7FEFF 		bl	printf
 1860              	.LVL179:
 834:../../Middlewares/Third_Party/LwIP/src/core/pbuf.c ****   }
 1861              		.loc 1 834 5 is_stmt 1 discriminator 3 view .LVU548
 834:../../Middlewares/Third_Party/LwIP/src/core/pbuf.c ****   }
 1862              		.loc 1 834 5 discriminator 3 view .LVU549
 836:../../Middlewares/Third_Party/LwIP/src/core/pbuf.c **** 
 1863              		.loc 1 836 1 is_stmt 0 view .LVU550
 1864 001e F6E7     		b	.L135
 1865              	.LVL180:
 1866              	.L138:
 1867              	.LCFI26:
 1868              		.cfi_def_cfa_offset 0
 1869              		.cfi_restore 3
 1870              		.cfi_restore 14
 836:../../Middlewares/Third_Party/LwIP/src/core/pbuf.c **** 
 1871              		.loc 1 836 1 view .LVU551
 1872 0020 7047     		bx	lr
 1873              	.L143:
 1874 0022 00BF     		.align	2
 1875              	.L142:
 1876 0024 00000000 		.word	.LC0
 1877 0028 00000000 		.word	.LC15
 1878 002c 40000000 		.word	.LC2
 1879              		.cfi_endproc
 1880              	.LFE187:
 1882              		.section	.rodata.pbuf_cat.str1.4,"aMS",%progbits,1
 1883              		.align	2
 1884              	.LC16:
 1885 0000 28682021 		.ascii	"(h != NULL) && (t != NULL) (programmer violates API"
 1885      3D204E55 
 1885      4C4C2920 
 1885      26262028 
 1885      7420213D 
 1886 0033 2900     		.ascii	")\000"
 1887 0035 000000   		.align	2
 1888              	.LC17:
 1889 0038 702D3E74 		.ascii	"p->tot_len == p->len (of last pbuf in chain)\000"
 1889      6F745F6C 
ARM GAS  /tmp/cc8sHRun.s 			page 64


 1889      656E203D 
 1889      3D20702D 
 1889      3E6C656E 
 1890 0065 000000   		.align	2
 1891              	.LC18:
 1892 0068 702D3E6E 		.ascii	"p->next == NULL\000"
 1892      65787420 
 1892      3D3D204E 
 1892      554C4C00 
 1893              		.section	.text.pbuf_cat,"ax",%progbits
 1894              		.align	1
 1895              		.global	pbuf_cat
 1896              		.syntax unified
 1897              		.thumb
 1898              		.thumb_func
 1900              	pbuf_cat:
 1901              	.LVL181:
 1902              	.LFB188:
 854:../../Middlewares/Third_Party/LwIP/src/core/pbuf.c ****   struct pbuf *p;
 1903              		.loc 1 854 1 is_stmt 1 view -0
 1904              		.cfi_startproc
 1905              		@ args = 0, pretend = 0, frame = 0
 1906              		@ frame_needed = 0, uses_anonymous_args = 0
 854:../../Middlewares/Third_Party/LwIP/src/core/pbuf.c ****   struct pbuf *p;
 1907              		.loc 1 854 1 is_stmt 0 view .LVU553
 1908 0000 38B5     		push	{r3, r4, r5, lr}
 1909              	.LCFI27:
 1910              		.cfi_def_cfa_offset 16
 1911              		.cfi_offset 3, -16
 1912              		.cfi_offset 4, -12
 1913              		.cfi_offset 5, -8
 1914              		.cfi_offset 14, -4
 1915 0002 0446     		mov	r4, r0
 1916 0004 0D46     		mov	r5, r1
 855:../../Middlewares/Third_Party/LwIP/src/core/pbuf.c **** 
 1917              		.loc 1 855 3 is_stmt 1 view .LVU554
 857:../../Middlewares/Third_Party/LwIP/src/core/pbuf.c ****              ((h != NULL) && (t != NULL)), return;);
 1918              		.loc 1 857 3 view .LVU555
 857:../../Middlewares/Third_Party/LwIP/src/core/pbuf.c ****              ((h != NULL) && (t != NULL)), return;);
 1919              		.loc 1 857 3 view .LVU556
 1920 0006 0029     		cmp	r1, #0
 1921 0008 18BF     		it	ne
 1922 000a 0028     		cmpne	r0, #0
 1923 000c 0CD1     		bne	.L145
 857:../../Middlewares/Third_Party/LwIP/src/core/pbuf.c ****              ((h != NULL) && (t != NULL)), return;);
 1924              		.loc 1 857 3 discriminator 1 view .LVU557
 857:../../Middlewares/Third_Party/LwIP/src/core/pbuf.c ****              ((h != NULL) && (t != NULL)), return;);
 1925              		.loc 1 857 3 discriminator 1 view .LVU558
 1926 000e 154B     		ldr	r3, .L152
 1927 0010 40F25932 		movw	r2, #857
 1928 0014 1449     		ldr	r1, .L152+4
 1929              	.LVL182:
 857:../../Middlewares/Third_Party/LwIP/src/core/pbuf.c ****              ((h != NULL) && (t != NULL)), return;);
 1930              		.loc 1 857 3 is_stmt 0 discriminator 1 view .LVU559
 1931 0016 1548     		ldr	r0, .L152+8
 1932              	.LVL183:
 857:../../Middlewares/Third_Party/LwIP/src/core/pbuf.c ****              ((h != NULL) && (t != NULL)), return;);
ARM GAS  /tmp/cc8sHRun.s 			page 65


 1933              		.loc 1 857 3 discriminator 1 view .LVU560
 1934 0018 FFF7FEFF 		bl	printf
 1935              	.LVL184:
 857:../../Middlewares/Third_Party/LwIP/src/core/pbuf.c ****              ((h != NULL) && (t != NULL)), return;);
 1936              		.loc 1 857 3 is_stmt 1 discriminator 1 view .LVU561
 857:../../Middlewares/Third_Party/LwIP/src/core/pbuf.c ****              ((h != NULL) && (t != NULL)), return;);
 1937              		.loc 1 857 3 discriminator 1 view .LVU562
 857:../../Middlewares/Third_Party/LwIP/src/core/pbuf.c ****              ((h != NULL) && (t != NULL)), return;);
 1938              		.loc 1 857 3 is_stmt 0 view .LVU563
 1939 001c 19E0     		b	.L144
 1940              	.LVL185:
 1941              	.L147:
 863:../../Middlewares/Third_Party/LwIP/src/core/pbuf.c ****   }
 1942              		.loc 1 863 5 is_stmt 1 view .LVU564
 863:../../Middlewares/Third_Party/LwIP/src/core/pbuf.c ****   }
 1943              		.loc 1 863 27 is_stmt 0 view .LVU565
 1944 001e 2389     		ldrh	r3, [r4, #8]
 863:../../Middlewares/Third_Party/LwIP/src/core/pbuf.c ****   }
 1945              		.loc 1 863 40 view .LVU566
 1946 0020 2889     		ldrh	r0, [r5, #8]
 863:../../Middlewares/Third_Party/LwIP/src/core/pbuf.c ****   }
 1947              		.loc 1 863 18 view .LVU567
 1948 0022 0344     		add	r3, r3, r0
 863:../../Middlewares/Third_Party/LwIP/src/core/pbuf.c ****   }
 1949              		.loc 1 863 16 view .LVU568
 1950 0024 2381     		strh	r3, [r4, #8]	@ movhi
 861:../../Middlewares/Third_Party/LwIP/src/core/pbuf.c ****     /* add total length of second chain to all totals of first chain */
 1951              		.loc 1 861 34 is_stmt 1 discriminator 3 view .LVU569
 1952              	.LVL186:
 861:../../Middlewares/Third_Party/LwIP/src/core/pbuf.c ****     /* add total length of second chain to all totals of first chain */
 1953              		.loc 1 861 34 is_stmt 0 discriminator 3 view .LVU570
 1954 0026 1446     		mov	r4, r2
 1955              	.LVL187:
 1956              	.L145:
 861:../../Middlewares/Third_Party/LwIP/src/core/pbuf.c ****     /* add total length of second chain to all totals of first chain */
 1957              		.loc 1 861 23 is_stmt 1 discriminator 1 view .LVU571
 861:../../Middlewares/Third_Party/LwIP/src/core/pbuf.c ****     /* add total length of second chain to all totals of first chain */
 1958              		.loc 1 861 16 is_stmt 0 discriminator 1 view .LVU572
 1959 0028 2268     		ldr	r2, [r4]
 861:../../Middlewares/Third_Party/LwIP/src/core/pbuf.c ****     /* add total length of second chain to all totals of first chain */
 1960              		.loc 1 861 23 discriminator 1 view .LVU573
 1961 002a 002A     		cmp	r2, #0
 1962 002c F7D1     		bne	.L147
 866:../../Middlewares/Third_Party/LwIP/src/core/pbuf.c ****   LWIP_ASSERT("p->next == NULL", p->next == NULL);
 1963              		.loc 1 866 3 is_stmt 1 view .LVU574
 866:../../Middlewares/Third_Party/LwIP/src/core/pbuf.c ****   LWIP_ASSERT("p->next == NULL", p->next == NULL);
 1964              		.loc 1 866 3 view .LVU575
 1965 002e 2289     		ldrh	r2, [r4, #8]
 1966 0030 6389     		ldrh	r3, [r4, #10]
 1967 0032 9A42     		cmp	r2, r3
 1968 0034 0ED1     		bne	.L151
 1969              	.LVL188:
 1970              	.L148:
 866:../../Middlewares/Third_Party/LwIP/src/core/pbuf.c ****   LWIP_ASSERT("p->next == NULL", p->next == NULL);
 1971              		.loc 1 866 3 discriminator 3 view .LVU576
 866:../../Middlewares/Third_Party/LwIP/src/core/pbuf.c ****   LWIP_ASSERT("p->next == NULL", p->next == NULL);
 1972              		.loc 1 866 3 discriminator 3 view .LVU577
ARM GAS  /tmp/cc8sHRun.s 			page 66


 867:../../Middlewares/Third_Party/LwIP/src/core/pbuf.c ****   /* add total length of second chain to last pbuf total of first chain */
 1973              		.loc 1 867 3 view .LVU578
 867:../../Middlewares/Third_Party/LwIP/src/core/pbuf.c ****   /* add total length of second chain to last pbuf total of first chain */
 1974              		.loc 1 867 3 view .LVU579
 1975 0036 2368     		ldr	r3, [r4]
 1976 0038 33B1     		cbz	r3, .L149
 867:../../Middlewares/Third_Party/LwIP/src/core/pbuf.c ****   /* add total length of second chain to last pbuf total of first chain */
 1977              		.loc 1 867 3 discriminator 1 view .LVU580
 867:../../Middlewares/Third_Party/LwIP/src/core/pbuf.c ****   /* add total length of second chain to last pbuf total of first chain */
 1978              		.loc 1 867 3 discriminator 1 view .LVU581
 1979 003a 0A4B     		ldr	r3, .L152
 1980 003c 40F26332 		movw	r2, #867
 1981 0040 0B49     		ldr	r1, .L152+12
 1982 0042 0A48     		ldr	r0, .L152+8
 1983 0044 FFF7FEFF 		bl	printf
 1984              	.LVL189:
 1985              	.L149:
 867:../../Middlewares/Third_Party/LwIP/src/core/pbuf.c ****   /* add total length of second chain to last pbuf total of first chain */
 1986              		.loc 1 867 3 discriminator 3 view .LVU582
 867:../../Middlewares/Third_Party/LwIP/src/core/pbuf.c ****   /* add total length of second chain to last pbuf total of first chain */
 1987              		.loc 1 867 3 discriminator 3 view .LVU583
 869:../../Middlewares/Third_Party/LwIP/src/core/pbuf.c ****   /* chain last pbuf of head (p) with first of tail (t) */
 1988              		.loc 1 869 3 view .LVU584
 869:../../Middlewares/Third_Party/LwIP/src/core/pbuf.c ****   /* chain last pbuf of head (p) with first of tail (t) */
 1989              		.loc 1 869 25 is_stmt 0 view .LVU585
 1990 0048 2389     		ldrh	r3, [r4, #8]
 869:../../Middlewares/Third_Party/LwIP/src/core/pbuf.c ****   /* chain last pbuf of head (p) with first of tail (t) */
 1991              		.loc 1 869 38 view .LVU586
 1992 004a 2A89     		ldrh	r2, [r5, #8]
 869:../../Middlewares/Third_Party/LwIP/src/core/pbuf.c ****   /* chain last pbuf of head (p) with first of tail (t) */
 1993              		.loc 1 869 16 view .LVU587
 1994 004c 1344     		add	r3, r3, r2
 869:../../Middlewares/Third_Party/LwIP/src/core/pbuf.c ****   /* chain last pbuf of head (p) with first of tail (t) */
 1995              		.loc 1 869 14 view .LVU588
 1996 004e 2381     		strh	r3, [r4, #8]	@ movhi
 871:../../Middlewares/Third_Party/LwIP/src/core/pbuf.c ****   /* p->next now references t, but the caller will drop its reference to t,
 1997              		.loc 1 871 3 is_stmt 1 view .LVU589
 871:../../Middlewares/Third_Party/LwIP/src/core/pbuf.c ****   /* p->next now references t, but the caller will drop its reference to t,
 1998              		.loc 1 871 11 is_stmt 0 view .LVU590
 1999 0050 2560     		str	r5, [r4]
 2000              	.LVL190:
 2001              	.L144:
 875:../../Middlewares/Third_Party/LwIP/src/core/pbuf.c **** 
 2002              		.loc 1 875 1 view .LVU591
 2003 0052 38BD     		pop	{r3, r4, r5, pc}
 2004              	.LVL191:
 2005              	.L151:
 866:../../Middlewares/Third_Party/LwIP/src/core/pbuf.c ****   LWIP_ASSERT("p->next == NULL", p->next == NULL);
 2006              		.loc 1 866 3 is_stmt 1 discriminator 1 view .LVU592
 866:../../Middlewares/Third_Party/LwIP/src/core/pbuf.c ****   LWIP_ASSERT("p->next == NULL", p->next == NULL);
 2007              		.loc 1 866 3 discriminator 1 view .LVU593
 2008 0054 034B     		ldr	r3, .L152
 2009 0056 40F26232 		movw	r2, #866
 2010 005a 0649     		ldr	r1, .L152+16
 2011              	.LVL192:
 866:../../Middlewares/Third_Party/LwIP/src/core/pbuf.c ****   LWIP_ASSERT("p->next == NULL", p->next == NULL);
 2012              		.loc 1 866 3 is_stmt 0 discriminator 1 view .LVU594
ARM GAS  /tmp/cc8sHRun.s 			page 67


 2013 005c 0348     		ldr	r0, .L152+8
 2014 005e FFF7FEFF 		bl	printf
 2015              	.LVL193:
 2016 0062 E8E7     		b	.L148
 2017              	.L153:
 2018              		.align	2
 2019              	.L152:
 2020 0064 00000000 		.word	.LC0
 2021 0068 00000000 		.word	.LC16
 2022 006c 40000000 		.word	.LC2
 2023 0070 68000000 		.word	.LC18
 2024 0074 38000000 		.word	.LC17
 2025              		.cfi_endproc
 2026              	.LFE188:
 2028              		.section	.text.pbuf_chain,"ax",%progbits
 2029              		.align	1
 2030              		.global	pbuf_chain
 2031              		.syntax unified
 2032              		.thumb
 2033              		.thumb_func
 2035              	pbuf_chain:
 2036              	.LVL194:
 2037              	.LFB189:
 896:../../Middlewares/Third_Party/LwIP/src/core/pbuf.c ****   pbuf_cat(h, t);
 2038              		.loc 1 896 1 is_stmt 1 view -0
 2039              		.cfi_startproc
 2040              		@ args = 0, pretend = 0, frame = 0
 2041              		@ frame_needed = 0, uses_anonymous_args = 0
 896:../../Middlewares/Third_Party/LwIP/src/core/pbuf.c ****   pbuf_cat(h, t);
 2042              		.loc 1 896 1 is_stmt 0 view .LVU596
 2043 0000 10B5     		push	{r4, lr}
 2044              	.LCFI28:
 2045              		.cfi_def_cfa_offset 8
 2046              		.cfi_offset 4, -8
 2047              		.cfi_offset 14, -4
 2048 0002 0C46     		mov	r4, r1
 897:../../Middlewares/Third_Party/LwIP/src/core/pbuf.c ****   /* t is now referenced by h */
 2049              		.loc 1 897 3 is_stmt 1 view .LVU597
 2050 0004 FFF7FEFF 		bl	pbuf_cat
 2051              	.LVL195:
 899:../../Middlewares/Third_Party/LwIP/src/core/pbuf.c ****   LWIP_DEBUGF(PBUF_DEBUG | LWIP_DBG_TRACE, ("pbuf_chain: %p references %p\n", (void *)h, (void *)t)
 2052              		.loc 1 899 3 view .LVU598
 2053 0008 2046     		mov	r0, r4
 2054 000a FFF7FEFF 		bl	pbuf_ref
 2055              	.LVL196:
 900:../../Middlewares/Third_Party/LwIP/src/core/pbuf.c **** }
 2056              		.loc 1 900 101 view .LVU599
 901:../../Middlewares/Third_Party/LwIP/src/core/pbuf.c **** 
 2057              		.loc 1 901 1 is_stmt 0 view .LVU600
 2058 000e 10BD     		pop	{r4, pc}
 901:../../Middlewares/Third_Party/LwIP/src/core/pbuf.c **** 
 2059              		.loc 1 901 1 view .LVU601
 2060              		.cfi_endproc
 2061              	.LFE189:
 2063              		.section	.rodata.pbuf_dechain.str1.4,"aMS",%progbits,1
 2064              		.align	2
 2065              	.LC19:
ARM GAS  /tmp/cc8sHRun.s 			page 68


 2066 0000 702D3E74 		.ascii	"p->tot_len == p->len + q->tot_len\000"
 2066      6F745F6C 
 2066      656E203D 
 2066      3D20702D 
 2066      3E6C656E 
 2067 0022 0000     		.align	2
 2068              	.LC20:
 2069 0024 702D3E74 		.ascii	"p->tot_len == p->len\000"
 2069      6F745F6C 
 2069      656E203D 
 2069      3D20702D 
 2069      3E6C656E 
 2070              		.section	.text.pbuf_dechain,"ax",%progbits
 2071              		.align	1
 2072              		.global	pbuf_dechain
 2073              		.syntax unified
 2074              		.thumb
 2075              		.thumb_func
 2077              	pbuf_dechain:
 2078              	.LVL197:
 2079              	.LFB190:
 913:../../Middlewares/Third_Party/LwIP/src/core/pbuf.c ****   struct pbuf *q;
 2080              		.loc 1 913 1 is_stmt 1 view -0
 2081              		.cfi_startproc
 2082              		@ args = 0, pretend = 0, frame = 0
 2083              		@ frame_needed = 0, uses_anonymous_args = 0
 913:../../Middlewares/Third_Party/LwIP/src/core/pbuf.c ****   struct pbuf *q;
 2084              		.loc 1 913 1 is_stmt 0 view .LVU603
 2085 0000 70B5     		push	{r4, r5, r6, lr}
 2086              	.LCFI29:
 2087              		.cfi_def_cfa_offset 16
 2088              		.cfi_offset 4, -16
 2089              		.cfi_offset 5, -12
 2090              		.cfi_offset 6, -8
 2091              		.cfi_offset 14, -4
 2092 0002 0446     		mov	r4, r0
 914:../../Middlewares/Third_Party/LwIP/src/core/pbuf.c ****   u8_t tail_gone = 1;
 2093              		.loc 1 914 3 is_stmt 1 view .LVU604
 915:../../Middlewares/Third_Party/LwIP/src/core/pbuf.c ****   /* tail */
 2094              		.loc 1 915 3 view .LVU605
 2095              	.LVL198:
 917:../../Middlewares/Third_Party/LwIP/src/core/pbuf.c ****   /* pbuf has successor in chain? */
 2096              		.loc 1 917 3 view .LVU606
 917:../../Middlewares/Third_Party/LwIP/src/core/pbuf.c ****   /* pbuf has successor in chain? */
 2097              		.loc 1 917 5 is_stmt 0 view .LVU607
 2098 0004 0568     		ldr	r5, [r0]
 2099              	.LVL199:
 919:../../Middlewares/Third_Party/LwIP/src/core/pbuf.c ****     /* assert tot_len invariant: (p->tot_len == p->len + (p->next? p->next->tot_len: 0) */
 2100              		.loc 1 919 3 is_stmt 1 view .LVU608
 919:../../Middlewares/Third_Party/LwIP/src/core/pbuf.c ****     /* assert tot_len invariant: (p->tot_len == p->len + (p->next? p->next->tot_len: 0) */
 2101              		.loc 1 919 6 is_stmt 0 view .LVU609
 2102 0006 05B3     		cbz	r5, .L161
 921:../../Middlewares/Third_Party/LwIP/src/core/pbuf.c ****     /* enforce invariant if assertion is disabled */
 2103              		.loc 1 921 5 is_stmt 1 view .LVU610
 921:../../Middlewares/Third_Party/LwIP/src/core/pbuf.c ****     /* enforce invariant if assertion is disabled */
 2104              		.loc 1 921 5 view .LVU611
 2105 0008 2A89     		ldrh	r2, [r5, #8]
ARM GAS  /tmp/cc8sHRun.s 			page 69


 2106 000a 0389     		ldrh	r3, [r0, #8]
 2107 000c 4189     		ldrh	r1, [r0, #10]
 2108 000e 5B1A     		subs	r3, r3, r1
 2109 0010 9A42     		cmp	r2, r3
 2110 0012 12D1     		bne	.L164
 2111              	.LVL200:
 2112              	.L158:
 921:../../Middlewares/Third_Party/LwIP/src/core/pbuf.c ****     /* enforce invariant if assertion is disabled */
 2113              		.loc 1 921 5 discriminator 3 view .LVU612
 921:../../Middlewares/Third_Party/LwIP/src/core/pbuf.c ****     /* enforce invariant if assertion is disabled */
 2114              		.loc 1 921 5 discriminator 3 view .LVU613
 923:../../Middlewares/Third_Party/LwIP/src/core/pbuf.c ****     /* decouple pbuf from remainder */
 2115              		.loc 1 923 5 view .LVU614
 923:../../Middlewares/Third_Party/LwIP/src/core/pbuf.c ****     /* decouple pbuf from remainder */
 2116              		.loc 1 923 27 is_stmt 0 view .LVU615
 2117 0014 2389     		ldrh	r3, [r4, #8]
 923:../../Middlewares/Third_Party/LwIP/src/core/pbuf.c ****     /* decouple pbuf from remainder */
 2118              		.loc 1 923 40 view .LVU616
 2119 0016 6289     		ldrh	r2, [r4, #10]
 923:../../Middlewares/Third_Party/LwIP/src/core/pbuf.c ****     /* decouple pbuf from remainder */
 2120              		.loc 1 923 18 view .LVU617
 2121 0018 9B1A     		subs	r3, r3, r2
 923:../../Middlewares/Third_Party/LwIP/src/core/pbuf.c ****     /* decouple pbuf from remainder */
 2122              		.loc 1 923 16 view .LVU618
 2123 001a 2B81     		strh	r3, [r5, #8]	@ movhi
 925:../../Middlewares/Third_Party/LwIP/src/core/pbuf.c ****     /* total length of pbuf p is its own length only */
 2124              		.loc 1 925 5 is_stmt 1 view .LVU619
 925:../../Middlewares/Third_Party/LwIP/src/core/pbuf.c ****     /* total length of pbuf p is its own length only */
 2125              		.loc 1 925 13 is_stmt 0 view .LVU620
 2126 001c 0023     		movs	r3, #0
 2127 001e 2360     		str	r3, [r4]
 927:../../Middlewares/Third_Party/LwIP/src/core/pbuf.c ****     /* q is no longer referenced by p, free it */
 2128              		.loc 1 927 5 is_stmt 1 view .LVU621
 927:../../Middlewares/Third_Party/LwIP/src/core/pbuf.c ****     /* q is no longer referenced by p, free it */
 2129              		.loc 1 927 19 is_stmt 0 view .LVU622
 2130 0020 6389     		ldrh	r3, [r4, #10]
 927:../../Middlewares/Third_Party/LwIP/src/core/pbuf.c ****     /* q is no longer referenced by p, free it */
 2131              		.loc 1 927 16 view .LVU623
 2132 0022 2381     		strh	r3, [r4, #8]	@ movhi
 929:../../Middlewares/Third_Party/LwIP/src/core/pbuf.c ****     tail_gone = pbuf_free(q);
 2133              		.loc 1 929 94 is_stmt 1 view .LVU624
 930:../../Middlewares/Third_Party/LwIP/src/core/pbuf.c ****     if (tail_gone > 0) {
 2134              		.loc 1 930 5 view .LVU625
 930:../../Middlewares/Third_Party/LwIP/src/core/pbuf.c ****     if (tail_gone > 0) {
 2135              		.loc 1 930 17 is_stmt 0 view .LVU626
 2136 0024 2846     		mov	r0, r5
 2137 0026 FFF7FEFF 		bl	pbuf_free
 2138              	.LVL201:
 2139 002a 0646     		mov	r6, r0
 2140              	.LVL202:
 931:../../Middlewares/Third_Party/LwIP/src/core/pbuf.c ****       LWIP_DEBUGF(PBUF_DEBUG | LWIP_DBG_TRACE,
 2141              		.loc 1 931 5 is_stmt 1 view .LVU627
 2142              	.L157:
 933:../../Middlewares/Third_Party/LwIP/src/core/pbuf.c ****     }
 2143              		.loc 1 933 97 view .LVU628
 938:../../Middlewares/Third_Party/LwIP/src/core/pbuf.c ****   return ((tail_gone > 0) ? NULL : q);
 2144              		.loc 1 938 3 view .LVU629
ARM GAS  /tmp/cc8sHRun.s 			page 70


 938:../../Middlewares/Third_Party/LwIP/src/core/pbuf.c ****   return ((tail_gone > 0) ? NULL : q);
 2145              		.loc 1 938 3 view .LVU630
 2146 002c 2289     		ldrh	r2, [r4, #8]
 2147 002e 6389     		ldrh	r3, [r4, #10]
 2148 0030 9A42     		cmp	r2, r3
 2149 0032 0CD1     		bne	.L165
 2150              	.L159:
 938:../../Middlewares/Third_Party/LwIP/src/core/pbuf.c ****   return ((tail_gone > 0) ? NULL : q);
 2151              		.loc 1 938 3 discriminator 3 view .LVU631
 938:../../Middlewares/Third_Party/LwIP/src/core/pbuf.c ****   return ((tail_gone > 0) ? NULL : q);
 2152              		.loc 1 938 3 discriminator 3 view .LVU632
 939:../../Middlewares/Third_Party/LwIP/src/core/pbuf.c **** }
 2153              		.loc 1 939 3 view .LVU633
 939:../../Middlewares/Third_Party/LwIP/src/core/pbuf.c **** }
 2154              		.loc 1 939 34 is_stmt 0 view .LVU634
 2155 0034 9EB9     		cbnz	r6, .L166
 2156              	.LVL203:
 2157              	.L156:
 940:../../Middlewares/Third_Party/LwIP/src/core/pbuf.c **** 
 2158              		.loc 1 940 1 view .LVU635
 2159 0036 2846     		mov	r0, r5
 2160 0038 70BD     		pop	{r4, r5, r6, pc}
 2161              	.LVL204:
 2162              	.L164:
 921:../../Middlewares/Third_Party/LwIP/src/core/pbuf.c ****     /* enforce invariant if assertion is disabled */
 2163              		.loc 1 921 5 is_stmt 1 discriminator 1 view .LVU636
 921:../../Middlewares/Third_Party/LwIP/src/core/pbuf.c ****     /* enforce invariant if assertion is disabled */
 2164              		.loc 1 921 5 discriminator 1 view .LVU637
 2165 003a 0A4B     		ldr	r3, .L167
 2166 003c 40F29932 		movw	r2, #921
 2167 0040 0949     		ldr	r1, .L167+4
 2168 0042 0A48     		ldr	r0, .L167+8
 2169              	.LVL205:
 921:../../Middlewares/Third_Party/LwIP/src/core/pbuf.c ****     /* enforce invariant if assertion is disabled */
 2170              		.loc 1 921 5 is_stmt 0 discriminator 1 view .LVU638
 2171 0044 FFF7FEFF 		bl	printf
 2172              	.LVL206:
 2173 0048 E4E7     		b	.L158
 2174              	.LVL207:
 2175              	.L161:
 915:../../Middlewares/Third_Party/LwIP/src/core/pbuf.c ****   /* tail */
 2176              		.loc 1 915 8 view .LVU639
 2177 004a 0126     		movs	r6, #1
 2178 004c EEE7     		b	.L157
 2179              	.LVL208:
 2180              	.L165:
 938:../../Middlewares/Third_Party/LwIP/src/core/pbuf.c ****   return ((tail_gone > 0) ? NULL : q);
 2181              		.loc 1 938 3 is_stmt 1 discriminator 1 view .LVU640
 938:../../Middlewares/Third_Party/LwIP/src/core/pbuf.c ****   return ((tail_gone > 0) ? NULL : q);
 2182              		.loc 1 938 3 discriminator 1 view .LVU641
 2183 004e 054B     		ldr	r3, .L167
 2184 0050 40F2AA32 		movw	r2, #938
 2185 0054 0649     		ldr	r1, .L167+12
 2186 0056 0548     		ldr	r0, .L167+8
 2187 0058 FFF7FEFF 		bl	printf
 2188              	.LVL209:
 2189 005c EAE7     		b	.L159
ARM GAS  /tmp/cc8sHRun.s 			page 71


 2190              	.L166:
 939:../../Middlewares/Third_Party/LwIP/src/core/pbuf.c **** }
 2191              		.loc 1 939 34 is_stmt 0 discriminator 2 view .LVU642
 2192 005e 0025     		movs	r5, #0
 2193              	.LVL210:
 939:../../Middlewares/Third_Party/LwIP/src/core/pbuf.c **** }
 2194              		.loc 1 939 34 view .LVU643
 2195 0060 E9E7     		b	.L156
 2196              	.L168:
 2197 0062 00BF     		.align	2
 2198              	.L167:
 2199 0064 00000000 		.word	.LC0
 2200 0068 00000000 		.word	.LC19
 2201 006c 40000000 		.word	.LC2
 2202 0070 24000000 		.word	.LC20
 2203              		.cfi_endproc
 2204              	.LFE190:
 2206              		.section	.rodata.pbuf_copy.str1.4,"aMS",%progbits,1
 2207              		.align	2
 2208              	.LC21:
 2209 0000 70627566 		.ascii	"pbuf_copy: target not big enough to hold source\000"
 2209      5F636F70 
 2209      793A2074 
 2209      61726765 
 2209      74206E6F 
 2210              		.align	2
 2211              	.LC22:
 2212 0030 6F666673 		.ascii	"offset_to <= p_to->len\000"
 2212      65745F74 
 2212      6F203C3D 
 2212      20705F74 
 2212      6F2D3E6C 
 2213 0047 00       		.align	2
 2214              	.LC23:
 2215 0048 6F666673 		.ascii	"offset_from <= p_from->len\000"
 2215      65745F66 
 2215      726F6D20 
 2215      3C3D2070 
 2215      5F66726F 
 2216 0063 00       		.align	2
 2217              	.LC24:
 2218 0064 705F746F 		.ascii	"p_to != NULL\000"
 2218      20213D20 
 2218      4E554C4C 
 2218      00
 2219 0071 000000   		.align	2
 2220              	.LC25:
 2221 0074 70627566 		.ascii	"pbuf_copy() does not allow packet queues!\000"
 2221      5F636F70 
 2221      79282920 
 2221      646F6573 
 2221      206E6F74 
 2222              		.section	.text.pbuf_copy,"ax",%progbits
 2223              		.align	1
 2224              		.global	pbuf_copy
 2225              		.syntax unified
 2226              		.thumb
ARM GAS  /tmp/cc8sHRun.s 			page 72


 2227              		.thumb_func
 2229              	pbuf_copy:
 2230              	.LVL211:
 2231              	.LFB191:
 962:../../Middlewares/Third_Party/LwIP/src/core/pbuf.c ****   size_t offset_to = 0, offset_from = 0, len;
 2232              		.loc 1 962 1 is_stmt 1 view -0
 2233              		.cfi_startproc
 2234              		@ args = 0, pretend = 0, frame = 0
 2235              		@ frame_needed = 0, uses_anonymous_args = 0
 962:../../Middlewares/Third_Party/LwIP/src/core/pbuf.c ****   size_t offset_to = 0, offset_from = 0, len;
 2236              		.loc 1 962 1 is_stmt 0 view .LVU645
 2237 0000 2DE9F041 		push	{r4, r5, r6, r7, r8, lr}
 2238              	.LCFI30:
 2239              		.cfi_def_cfa_offset 24
 2240              		.cfi_offset 4, -24
 2241              		.cfi_offset 5, -20
 2242              		.cfi_offset 6, -16
 2243              		.cfi_offset 7, -12
 2244              		.cfi_offset 8, -8
 2245              		.cfi_offset 14, -4
 963:../../Middlewares/Third_Party/LwIP/src/core/pbuf.c **** 
 2246              		.loc 1 963 3 is_stmt 1 view .LVU646
 2247              	.LVL212:
 966:../../Middlewares/Third_Party/LwIP/src/core/pbuf.c **** 
 2248              		.loc 1 966 57 view .LVU647
 969:../../Middlewares/Third_Party/LwIP/src/core/pbuf.c ****              (p_from != NULL) && (p_to->tot_len >= p_from->tot_len)), return ERR_ARG;);
 2249              		.loc 1 969 3 view .LVU648
 969:../../Middlewares/Third_Party/LwIP/src/core/pbuf.c ****              (p_from != NULL) && (p_to->tot_len >= p_from->tot_len)), return ERR_ARG;);
 2250              		.loc 1 969 3 view .LVU649
 2251 0004 0029     		cmp	r1, #0
 2252 0006 18BF     		it	ne
 2253 0008 0028     		cmpne	r0, #0
 2254 000a 08D0     		beq	.L170
 2255 000c 0546     		mov	r5, r0
 2256 000e 0C46     		mov	r4, r1
 969:../../Middlewares/Third_Party/LwIP/src/core/pbuf.c ****              (p_from != NULL) && (p_to->tot_len >= p_from->tot_len)), return ERR_ARG;);
 2257              		.loc 1 969 3 is_stmt 0 discriminator 2 view .LVU650
 2258 0010 0289     		ldrh	r2, [r0, #8]
 2259 0012 0B89     		ldrh	r3, [r1, #8]
 2260 0014 9A42     		cmp	r2, r3
 2261 0016 02D3     		bcc	.L170
 963:../../Middlewares/Third_Party/LwIP/src/core/pbuf.c **** 
 2262              		.loc 1 963 25 view .LVU651
 2263 0018 0027     		movs	r7, #0
 963:../../Middlewares/Third_Party/LwIP/src/core/pbuf.c **** 
 2264              		.loc 1 963 10 view .LVU652
 2265 001a B846     		mov	r8, r7
 2266 001c 3CE0     		b	.L171
 2267              	.L170:
 969:../../Middlewares/Third_Party/LwIP/src/core/pbuf.c ****              (p_from != NULL) && (p_to->tot_len >= p_from->tot_len)), return ERR_ARG;);
 2268              		.loc 1 969 3 is_stmt 1 discriminator 3 view .LVU653
 969:../../Middlewares/Third_Party/LwIP/src/core/pbuf.c ****              (p_from != NULL) && (p_to->tot_len >= p_from->tot_len)), return ERR_ARG;);
 2269              		.loc 1 969 3 discriminator 3 view .LVU654
 2270 001e 3B4B     		ldr	r3, .L189
 2271 0020 40F2C932 		movw	r2, #969
 2272 0024 3A49     		ldr	r1, .L189+4
 2273              	.LVL213:
ARM GAS  /tmp/cc8sHRun.s 			page 73


 969:../../Middlewares/Third_Party/LwIP/src/core/pbuf.c ****              (p_from != NULL) && (p_to->tot_len >= p_from->tot_len)), return ERR_ARG;);
 2274              		.loc 1 969 3 is_stmt 0 discriminator 3 view .LVU655
 2275 0026 3B48     		ldr	r0, .L189+8
 2276              	.LVL214:
 969:../../Middlewares/Third_Party/LwIP/src/core/pbuf.c ****              (p_from != NULL) && (p_to->tot_len >= p_from->tot_len)), return ERR_ARG;);
 2277              		.loc 1 969 3 discriminator 3 view .LVU656
 2278 0028 FFF7FEFF 		bl	printf
 2279              	.LVL215:
 969:../../Middlewares/Third_Party/LwIP/src/core/pbuf.c ****              (p_from != NULL) && (p_to->tot_len >= p_from->tot_len)), return ERR_ARG;);
 2280              		.loc 1 969 3 is_stmt 1 discriminator 1 view .LVU657
 969:../../Middlewares/Third_Party/LwIP/src/core/pbuf.c ****              (p_from != NULL) && (p_to->tot_len >= p_from->tot_len)), return ERR_ARG;);
 2281              		.loc 1 969 3 discriminator 1 view .LVU658
 2282 002c 6FF00F00 		mvn	r0, #15
 969:../../Middlewares/Third_Party/LwIP/src/core/pbuf.c ****              (p_from != NULL) && (p_to->tot_len >= p_from->tot_len)), return ERR_ARG;);
 2283              		.loc 1 969 3 is_stmt 0 view .LVU659
 2284 0030 6AE0     		b	.L172
 2285              	.LVL216:
 2286              	.L185:
 985:../../Middlewares/Third_Party/LwIP/src/core/pbuf.c ****     LWIP_ASSERT("offset_from <= p_from->len", offset_from <= p_from->len);
 2287              		.loc 1 985 5 is_stmt 1 discriminator 1 view .LVU660
 985:../../Middlewares/Third_Party/LwIP/src/core/pbuf.c ****     LWIP_ASSERT("offset_from <= p_from->len", offset_from <= p_from->len);
 2288              		.loc 1 985 5 discriminator 1 view .LVU661
 2289 0032 364B     		ldr	r3, .L189
 2290 0034 40F2D932 		movw	r2, #985
 2291 0038 3749     		ldr	r1, .L189+12
 2292 003a 3648     		ldr	r0, .L189+8
 2293 003c FFF7FEFF 		bl	printf
 2294              	.LVL217:
 2295 0040 3EE0     		b	.L174
 2296              	.L186:
 986:../../Middlewares/Third_Party/LwIP/src/core/pbuf.c ****     if (offset_from >= p_from->len) {
 2297              		.loc 1 986 5 discriminator 1 view .LVU662
 986:../../Middlewares/Third_Party/LwIP/src/core/pbuf.c ****     if (offset_from >= p_from->len) {
 2298              		.loc 1 986 5 discriminator 1 view .LVU663
 2299 0042 324B     		ldr	r3, .L189
 2300 0044 40F2DA32 		movw	r2, #986
 2301 0048 3449     		ldr	r1, .L189+16
 2302 004a 3248     		ldr	r0, .L189+8
 2303 004c FFF7FEFF 		bl	printf
 2304              	.LVL218:
 2305 0050 39E0     		b	.L175
 2306              	.L187:
 994:../../Middlewares/Third_Party/LwIP/src/core/pbuf.c ****       p_to = p_to->next;
 2307              		.loc 1 994 7 view .LVU664
 2308              	.LVL219:
 995:../../Middlewares/Third_Party/LwIP/src/core/pbuf.c ****       LWIP_ERROR("p_to != NULL", (p_to != NULL) || (p_from == NULL), return ERR_ARG;);
 2309              		.loc 1 995 7 view .LVU665
 995:../../Middlewares/Third_Party/LwIP/src/core/pbuf.c ****       LWIP_ERROR("p_to != NULL", (p_to != NULL) || (p_from == NULL), return ERR_ARG;);
 2310              		.loc 1 995 12 is_stmt 0 view .LVU666
 2311 0052 2D68     		ldr	r5, [r5]
 2312              	.LVL220:
 996:../../Middlewares/Third_Party/LwIP/src/core/pbuf.c ****     }
 2313              		.loc 1 996 7 is_stmt 1 view .LVU667
 996:../../Middlewares/Third_Party/LwIP/src/core/pbuf.c ****     }
 2314              		.loc 1 996 7 view .LVU668
 2315 0054 B5FA85F3 		clz	r3, r5
 2316 0058 5B09     		lsrs	r3, r3, #5
ARM GAS  /tmp/cc8sHRun.s 			page 74


 2317 005a 002C     		cmp	r4, #0
 2318 005c 08BF     		it	eq
 2319 005e 0023     		moveq	r3, #0
 2320 0060 13B9     		cbnz	r3, .L183
 994:../../Middlewares/Third_Party/LwIP/src/core/pbuf.c ****       p_to = p_to->next;
 2321              		.loc 1 994 17 is_stmt 0 view .LVU669
 2322 0062 4FF00008 		mov	r8, #0
 2323 0066 36E0     		b	.L177
 2324              	.L183:
 996:../../Middlewares/Third_Party/LwIP/src/core/pbuf.c ****     }
 2325              		.loc 1 996 7 is_stmt 1 discriminator 1 view .LVU670
 996:../../Middlewares/Third_Party/LwIP/src/core/pbuf.c ****     }
 2326              		.loc 1 996 7 discriminator 1 view .LVU671
 2327 0068 284B     		ldr	r3, .L189
 2328 006a 4FF47972 		mov	r2, #996
 2329 006e 2C49     		ldr	r1, .L189+20
 2330 0070 2848     		ldr	r0, .L189+8
 2331 0072 FFF7FEFF 		bl	printf
 2332              	.LVL221:
 996:../../Middlewares/Third_Party/LwIP/src/core/pbuf.c ****     }
 2333              		.loc 1 996 7 discriminator 1 view .LVU672
 996:../../Middlewares/Third_Party/LwIP/src/core/pbuf.c ****     }
 2334              		.loc 1 996 7 discriminator 1 view .LVU673
 2335 0076 6FF00F00 		mvn	r0, #15
 996:../../Middlewares/Third_Party/LwIP/src/core/pbuf.c ****     }
 2336              		.loc 1 996 7 is_stmt 0 view .LVU674
 2337 007a 45E0     		b	.L172
 2338              	.LVL222:
 2339              	.L188:
1001:../../Middlewares/Third_Party/LwIP/src/core/pbuf.c ****                  (p_from->next == NULL), return ERR_VAL;);
 2340              		.loc 1 1001 7 is_stmt 1 view .LVU675
1001:../../Middlewares/Third_Party/LwIP/src/core/pbuf.c ****                  (p_from->next == NULL), return ERR_VAL;);
 2341              		.loc 1 1001 7 view .LVU676
 2342 007c 2368     		ldr	r3, [r4]
 2343 007e 7BB3     		cbz	r3, .L178
1001:../../Middlewares/Third_Party/LwIP/src/core/pbuf.c ****                  (p_from->next == NULL), return ERR_VAL;);
 2344              		.loc 1 1001 7 discriminator 1 view .LVU677
1001:../../Middlewares/Third_Party/LwIP/src/core/pbuf.c ****                  (p_from->next == NULL), return ERR_VAL;);
 2345              		.loc 1 1001 7 discriminator 1 view .LVU678
 2346 0080 224B     		ldr	r3, .L189
 2347 0082 40F2E932 		movw	r2, #1001
 2348 0086 2749     		ldr	r1, .L189+24
 2349 0088 2248     		ldr	r0, .L189+8
 2350 008a FFF7FEFF 		bl	printf
 2351              	.LVL223:
1001:../../Middlewares/Third_Party/LwIP/src/core/pbuf.c ****                  (p_from->next == NULL), return ERR_VAL;);
 2352              		.loc 1 1001 7 discriminator 1 view .LVU679
1001:../../Middlewares/Third_Party/LwIP/src/core/pbuf.c ****                  (p_from->next == NULL), return ERR_VAL;);
 2353              		.loc 1 1001 7 discriminator 1 view .LVU680
 2354 008e 6FF00500 		mvn	r0, #5
1001:../../Middlewares/Third_Party/LwIP/src/core/pbuf.c ****                  (p_from->next == NULL), return ERR_VAL;);
 2355              		.loc 1 1001 7 is_stmt 0 view .LVU681
 2356 0092 39E0     		b	.L172
 2357              	.L179:
1006:../../Middlewares/Third_Party/LwIP/src/core/pbuf.c ****                  (p_to->next == NULL), return ERR_VAL;);
 2358              		.loc 1 1006 7 is_stmt 1 discriminator 2 view .LVU682
1006:../../Middlewares/Third_Party/LwIP/src/core/pbuf.c ****                  (p_to->next == NULL), return ERR_VAL;);
ARM GAS  /tmp/cc8sHRun.s 			page 75


 2359              		.loc 1 1006 7 discriminator 2 view .LVU683
1009:../../Middlewares/Third_Party/LwIP/src/core/pbuf.c ****   LWIP_DEBUGF(PBUF_DEBUG | LWIP_DBG_TRACE, ("pbuf_copy: end of chain reached.\n"));
 2360              		.loc 1 1009 12 view .LVU684
 2361 0094 002C     		cmp	r4, #0
 2362 0096 36D0     		beq	.L184
 2363              	.LVL224:
 2364              	.L171:
 969:../../Middlewares/Third_Party/LwIP/src/core/pbuf.c ****              (p_from != NULL) && (p_to->tot_len >= p_from->tot_len)), return ERR_ARG;);
 2365              		.loc 1 969 3 discriminator 4 view .LVU685
 969:../../Middlewares/Third_Party/LwIP/src/core/pbuf.c ****              (p_from != NULL) && (p_to->tot_len >= p_from->tot_len)), return ERR_ARG;);
 2366              		.loc 1 969 3 discriminator 4 view .LVU686
 973:../../Middlewares/Third_Party/LwIP/src/core/pbuf.c ****     /* copy one part of the original chain */
 2367              		.loc 1 973 3 view .LVU687
 975:../../Middlewares/Third_Party/LwIP/src/core/pbuf.c ****       /* complete current p_from fits into current p_to */
 2368              		.loc 1 975 5 view .LVU688
 975:../../Middlewares/Third_Party/LwIP/src/core/pbuf.c ****       /* complete current p_from fits into current p_to */
 2369              		.loc 1 975 14 is_stmt 0 view .LVU689
 2370 0098 6E89     		ldrh	r6, [r5, #10]
 975:../../Middlewares/Third_Party/LwIP/src/core/pbuf.c ****       /* complete current p_from fits into current p_to */
 2371              		.loc 1 975 20 view .LVU690
 2372 009a A6EB0806 		sub	r6, r6, r8
 975:../../Middlewares/Third_Party/LwIP/src/core/pbuf.c ****       /* complete current p_from fits into current p_to */
 2373              		.loc 1 975 43 view .LVU691
 2374 009e 6389     		ldrh	r3, [r4, #10]
 975:../../Middlewares/Third_Party/LwIP/src/core/pbuf.c ****       /* complete current p_from fits into current p_to */
 2375              		.loc 1 975 49 view .LVU692
 2376 00a0 DB1B     		subs	r3, r3, r7
 975:../../Middlewares/Third_Party/LwIP/src/core/pbuf.c ****       /* complete current p_from fits into current p_to */
 2377              		.loc 1 975 8 view .LVU693
 2378 00a2 9E42     		cmp	r6, r3
 2379 00a4 00D3     		bcc	.L173
 977:../../Middlewares/Third_Party/LwIP/src/core/pbuf.c ****     } else {
 2380              		.loc 1 977 11 view .LVU694
 2381 00a6 1E46     		mov	r6, r3
 2382              	.L173:
 2383              	.LVL225:
 982:../../Middlewares/Third_Party/LwIP/src/core/pbuf.c ****     offset_to += len;
 2384              		.loc 1 982 5 is_stmt 1 view .LVU695
 2385 00a8 6868     		ldr	r0, [r5, #4]
 2386 00aa 6168     		ldr	r1, [r4, #4]
 2387 00ac 3246     		mov	r2, r6
 2388 00ae 3944     		add	r1, r1, r7
 2389 00b0 4044     		add	r0, r0, r8
 2390 00b2 FFF7FEFF 		bl	memcpy
 2391              	.LVL226:
 983:../../Middlewares/Third_Party/LwIP/src/core/pbuf.c ****     offset_from += len;
 2392              		.loc 1 983 5 view .LVU696
 983:../../Middlewares/Third_Party/LwIP/src/core/pbuf.c ****     offset_from += len;
 2393              		.loc 1 983 15 is_stmt 0 view .LVU697
 2394 00b6 B044     		add	r8, r8, r6
 2395              	.LVL227:
 984:../../Middlewares/Third_Party/LwIP/src/core/pbuf.c ****     LWIP_ASSERT("offset_to <= p_to->len", offset_to <= p_to->len);
 2396              		.loc 1 984 5 is_stmt 1 view .LVU698
 984:../../Middlewares/Third_Party/LwIP/src/core/pbuf.c ****     LWIP_ASSERT("offset_to <= p_to->len", offset_to <= p_to->len);
 2397              		.loc 1 984 17 is_stmt 0 view .LVU699
 2398 00b8 3744     		add	r7, r7, r6
 2399              	.LVL228:
ARM GAS  /tmp/cc8sHRun.s 			page 76


 985:../../Middlewares/Third_Party/LwIP/src/core/pbuf.c ****     LWIP_ASSERT("offset_from <= p_from->len", offset_from <= p_from->len);
 2400              		.loc 1 985 5 is_stmt 1 view .LVU700
 985:../../Middlewares/Third_Party/LwIP/src/core/pbuf.c ****     LWIP_ASSERT("offset_from <= p_from->len", offset_from <= p_from->len);
 2401              		.loc 1 985 5 view .LVU701
 2402 00ba 6B89     		ldrh	r3, [r5, #10]
 2403 00bc 4345     		cmp	r3, r8
 2404 00be B8D3     		bcc	.L185
 2405              	.L174:
 985:../../Middlewares/Third_Party/LwIP/src/core/pbuf.c ****     LWIP_ASSERT("offset_from <= p_from->len", offset_from <= p_from->len);
 2406              		.loc 1 985 5 discriminator 3 view .LVU702
 985:../../Middlewares/Third_Party/LwIP/src/core/pbuf.c ****     LWIP_ASSERT("offset_from <= p_from->len", offset_from <= p_from->len);
 2407              		.loc 1 985 5 discriminator 3 view .LVU703
 986:../../Middlewares/Third_Party/LwIP/src/core/pbuf.c ****     if (offset_from >= p_from->len) {
 2408              		.loc 1 986 5 view .LVU704
 986:../../Middlewares/Third_Party/LwIP/src/core/pbuf.c ****     if (offset_from >= p_from->len) {
 2409              		.loc 1 986 5 view .LVU705
 2410 00c0 6389     		ldrh	r3, [r4, #10]
 2411 00c2 BB42     		cmp	r3, r7
 2412 00c4 BDD3     		bcc	.L186
 2413              	.L175:
 986:../../Middlewares/Third_Party/LwIP/src/core/pbuf.c ****     if (offset_from >= p_from->len) {
 2414              		.loc 1 986 5 discriminator 3 view .LVU706
 986:../../Middlewares/Third_Party/LwIP/src/core/pbuf.c ****     if (offset_from >= p_from->len) {
 2415              		.loc 1 986 5 discriminator 3 view .LVU707
 987:../../Middlewares/Third_Party/LwIP/src/core/pbuf.c ****       /* on to next p_from (if any) */
 2416              		.loc 1 987 5 view .LVU708
 987:../../Middlewares/Third_Party/LwIP/src/core/pbuf.c ****       /* on to next p_from (if any) */
 2417              		.loc 1 987 30 is_stmt 0 view .LVU709
 2418 00c6 6389     		ldrh	r3, [r4, #10]
 987:../../Middlewares/Third_Party/LwIP/src/core/pbuf.c ****       /* on to next p_from (if any) */
 2419              		.loc 1 987 8 view .LVU710
 2420 00c8 BB42     		cmp	r3, r7
 2421 00ca 01D8     		bhi	.L176
 989:../../Middlewares/Third_Party/LwIP/src/core/pbuf.c ****       p_from = p_from->next;
 2422              		.loc 1 989 7 is_stmt 1 view .LVU711
 2423              	.LVL229:
 990:../../Middlewares/Third_Party/LwIP/src/core/pbuf.c ****     }
 2424              		.loc 1 990 7 view .LVU712
 990:../../Middlewares/Third_Party/LwIP/src/core/pbuf.c ****     }
 2425              		.loc 1 990 14 is_stmt 0 view .LVU713
 2426 00cc 2468     		ldr	r4, [r4]
 2427              	.LVL230:
 989:../../Middlewares/Third_Party/LwIP/src/core/pbuf.c ****       p_from = p_from->next;
 2428              		.loc 1 989 19 view .LVU714
 2429 00ce 0027     		movs	r7, #0
 2430              	.LVL231:
 2431              	.L176:
 992:../../Middlewares/Third_Party/LwIP/src/core/pbuf.c ****       /* on to next p_to (if any) */
 2432              		.loc 1 992 5 is_stmt 1 view .LVU715
 992:../../Middlewares/Third_Party/LwIP/src/core/pbuf.c ****       /* on to next p_to (if any) */
 2433              		.loc 1 992 26 is_stmt 0 view .LVU716
 2434 00d0 6B89     		ldrh	r3, [r5, #10]
 992:../../Middlewares/Third_Party/LwIP/src/core/pbuf.c ****       /* on to next p_to (if any) */
 2435              		.loc 1 992 8 view .LVU717
 2436 00d2 4345     		cmp	r3, r8
 2437 00d4 BDD0     		beq	.L187
 2438              	.LVL232:
ARM GAS  /tmp/cc8sHRun.s 			page 77


 2439              	.L177:
 996:../../Middlewares/Third_Party/LwIP/src/core/pbuf.c ****     }
 2440              		.loc 1 996 7 is_stmt 1 discriminator 2 view .LVU718
 996:../../Middlewares/Third_Party/LwIP/src/core/pbuf.c ****     }
 2441              		.loc 1 996 7 discriminator 2 view .LVU719
 999:../../Middlewares/Third_Party/LwIP/src/core/pbuf.c ****       /* don't copy more than one packet! */
 2442              		.loc 1 999 5 view .LVU720
 999:../../Middlewares/Third_Party/LwIP/src/core/pbuf.c ****       /* don't copy more than one packet! */
 2443              		.loc 1 999 8 is_stmt 0 view .LVU721
 2444 00d6 1CB1     		cbz	r4, .L178
 999:../../Middlewares/Third_Party/LwIP/src/core/pbuf.c ****       /* don't copy more than one packet! */
 2445              		.loc 1 999 36 discriminator 1 view .LVU722
 2446 00d8 6289     		ldrh	r2, [r4, #10]
 999:../../Middlewares/Third_Party/LwIP/src/core/pbuf.c ****       /* don't copy more than one packet! */
 2447              		.loc 1 999 51 discriminator 1 view .LVU723
 2448 00da 2389     		ldrh	r3, [r4, #8]
 999:../../Middlewares/Third_Party/LwIP/src/core/pbuf.c ****       /* don't copy more than one packet! */
 2449              		.loc 1 999 26 discriminator 1 view .LVU724
 2450 00dc 9A42     		cmp	r2, r3
 2451 00de CDD0     		beq	.L188
 2452              	.L178:
1001:../../Middlewares/Third_Party/LwIP/src/core/pbuf.c ****                  (p_from->next == NULL), return ERR_VAL;);
 2453              		.loc 1 1001 7 is_stmt 1 discriminator 2 view .LVU725
1001:../../Middlewares/Third_Party/LwIP/src/core/pbuf.c ****                  (p_from->next == NULL), return ERR_VAL;);
 2454              		.loc 1 1001 7 discriminator 2 view .LVU726
1004:../../Middlewares/Third_Party/LwIP/src/core/pbuf.c ****       /* don't copy more than one packet! */
 2455              		.loc 1 1004 5 view .LVU727
1004:../../Middlewares/Third_Party/LwIP/src/core/pbuf.c ****       /* don't copy more than one packet! */
 2456              		.loc 1 1004 8 is_stmt 0 view .LVU728
 2457 00e0 002D     		cmp	r5, #0
 2458 00e2 D7D0     		beq	.L179
1004:../../Middlewares/Third_Party/LwIP/src/core/pbuf.c ****       /* don't copy more than one packet! */
 2459              		.loc 1 1004 32 discriminator 1 view .LVU729
 2460 00e4 6A89     		ldrh	r2, [r5, #10]
1004:../../Middlewares/Third_Party/LwIP/src/core/pbuf.c ****       /* don't copy more than one packet! */
 2461              		.loc 1 1004 45 discriminator 1 view .LVU730
 2462 00e6 2B89     		ldrh	r3, [r5, #8]
1004:../../Middlewares/Third_Party/LwIP/src/core/pbuf.c ****       /* don't copy more than one packet! */
 2463              		.loc 1 1004 24 discriminator 1 view .LVU731
 2464 00e8 9A42     		cmp	r2, r3
 2465 00ea D3D1     		bne	.L179
1006:../../Middlewares/Third_Party/LwIP/src/core/pbuf.c ****                  (p_to->next == NULL), return ERR_VAL;);
 2466              		.loc 1 1006 7 is_stmt 1 view .LVU732
1006:../../Middlewares/Third_Party/LwIP/src/core/pbuf.c ****                  (p_to->next == NULL), return ERR_VAL;);
 2467              		.loc 1 1006 7 view .LVU733
 2468 00ec 2B68     		ldr	r3, [r5]
 2469 00ee 002B     		cmp	r3, #0
 2470 00f0 D0D0     		beq	.L179
1006:../../Middlewares/Third_Party/LwIP/src/core/pbuf.c ****                  (p_to->next == NULL), return ERR_VAL;);
 2471              		.loc 1 1006 7 discriminator 1 view .LVU734
1006:../../Middlewares/Third_Party/LwIP/src/core/pbuf.c ****                  (p_to->next == NULL), return ERR_VAL;);
 2472              		.loc 1 1006 7 discriminator 1 view .LVU735
 2473 00f2 064B     		ldr	r3, .L189
 2474 00f4 40F2EE32 		movw	r2, #1006
 2475 00f8 0A49     		ldr	r1, .L189+24
 2476 00fa 0648     		ldr	r0, .L189+8
 2477 00fc FFF7FEFF 		bl	printf
ARM GAS  /tmp/cc8sHRun.s 			page 78


 2478              	.LVL233:
1006:../../Middlewares/Third_Party/LwIP/src/core/pbuf.c ****                  (p_to->next == NULL), return ERR_VAL;);
 2479              		.loc 1 1006 7 discriminator 1 view .LVU736
1006:../../Middlewares/Third_Party/LwIP/src/core/pbuf.c ****                  (p_to->next == NULL), return ERR_VAL;);
 2480              		.loc 1 1006 7 discriminator 1 view .LVU737
 2481 0100 6FF00500 		mvn	r0, #5
1006:../../Middlewares/Third_Party/LwIP/src/core/pbuf.c ****                  (p_to->next == NULL), return ERR_VAL;);
 2482              		.loc 1 1006 7 is_stmt 0 view .LVU738
 2483 0104 00E0     		b	.L172
 2484              	.L184:
1011:../../Middlewares/Third_Party/LwIP/src/core/pbuf.c **** }
 2485              		.loc 1 1011 10 view .LVU739
 2486 0106 0020     		movs	r0, #0
 2487              	.LVL234:
 2488              	.L172:
1012:../../Middlewares/Third_Party/LwIP/src/core/pbuf.c **** 
 2489              		.loc 1 1012 1 view .LVU740
 2490 0108 BDE8F081 		pop	{r4, r5, r6, r7, r8, pc}
 2491              	.L190:
 2492              		.align	2
 2493              	.L189:
 2494 010c 00000000 		.word	.LC0
 2495 0110 00000000 		.word	.LC21
 2496 0114 40000000 		.word	.LC2
 2497 0118 30000000 		.word	.LC22
 2498 011c 48000000 		.word	.LC23
 2499 0120 64000000 		.word	.LC24
 2500 0124 74000000 		.word	.LC25
 2501              		.cfi_endproc
 2502              	.LFE191:
 2504              		.section	.rodata.pbuf_copy_partial.str1.4,"aMS",%progbits,1
 2505              		.align	2
 2506              	.LC26:
 2507 0000 70627566 		.ascii	"pbuf_copy_partial: invalid buf\000"
 2507      5F636F70 
 2507      795F7061 
 2507      72746961 
 2507      6C3A2069 
 2508 001f 00       		.align	2
 2509              	.LC27:
 2510 0020 70627566 		.ascii	"pbuf_copy_partial: invalid dataptr\000"
 2510      5F636F70 
 2510      795F7061 
 2510      72746961 
 2510      6C3A2069 
 2511              		.section	.text.pbuf_copy_partial,"ax",%progbits
 2512              		.align	1
 2513              		.global	pbuf_copy_partial
 2514              		.syntax unified
 2515              		.thumb
 2516              		.thumb_func
 2518              	pbuf_copy_partial:
 2519              	.LVL235:
 2520              	.LFB192:
1028:../../Middlewares/Third_Party/LwIP/src/core/pbuf.c ****   const struct pbuf *p;
 2521              		.loc 1 1028 1 is_stmt 1 view -0
 2522              		.cfi_startproc
ARM GAS  /tmp/cc8sHRun.s 			page 79


 2523              		@ args = 0, pretend = 0, frame = 0
 2524              		@ frame_needed = 0, uses_anonymous_args = 0
1028:../../Middlewares/Third_Party/LwIP/src/core/pbuf.c ****   const struct pbuf *p;
 2525              		.loc 1 1028 1 is_stmt 0 view .LVU742
 2526 0000 2DE9F843 		push	{r3, r4, r5, r6, r7, r8, r9, lr}
 2527              	.LCFI31:
 2528              		.cfi_def_cfa_offset 32
 2529              		.cfi_offset 3, -32
 2530              		.cfi_offset 4, -28
 2531              		.cfi_offset 5, -24
 2532              		.cfi_offset 6, -20
 2533              		.cfi_offset 7, -16
 2534              		.cfi_offset 8, -12
 2535              		.cfi_offset 9, -8
 2536              		.cfi_offset 14, -4
1029:../../Middlewares/Third_Party/LwIP/src/core/pbuf.c ****   u16_t left = 0;
 2537              		.loc 1 1029 3 is_stmt 1 view .LVU743
1030:../../Middlewares/Third_Party/LwIP/src/core/pbuf.c ****   u16_t buf_copy_len;
 2538              		.loc 1 1030 3 view .LVU744
 2539              	.LVL236:
1031:../../Middlewares/Third_Party/LwIP/src/core/pbuf.c ****   u16_t copied_total = 0;
 2540              		.loc 1 1031 3 view .LVU745
1032:../../Middlewares/Third_Party/LwIP/src/core/pbuf.c **** 
 2541              		.loc 1 1032 3 view .LVU746
1034:../../Middlewares/Third_Party/LwIP/src/core/pbuf.c ****   LWIP_ERROR("pbuf_copy_partial: invalid dataptr", (dataptr != NULL), return 0;);
 2542              		.loc 1 1034 3 view .LVU747
1034:../../Middlewares/Third_Party/LwIP/src/core/pbuf.c ****   LWIP_ERROR("pbuf_copy_partial: invalid dataptr", (dataptr != NULL), return 0;);
 2543              		.loc 1 1034 3 view .LVU748
 2544 0004 30B1     		cbz	r0, .L203
 2545 0006 8846     		mov	r8, r1
 2546 0008 9146     		mov	r9, r2
 2547 000a 0546     		mov	r5, r0
1034:../../Middlewares/Third_Party/LwIP/src/core/pbuf.c ****   LWIP_ERROR("pbuf_copy_partial: invalid dataptr", (dataptr != NULL), return 0;);
 2548              		.loc 1 1034 3 discriminator 2 view .LVU749
1034:../../Middlewares/Third_Party/LwIP/src/core/pbuf.c ****   LWIP_ERROR("pbuf_copy_partial: invalid dataptr", (dataptr != NULL), return 0;);
 2549              		.loc 1 1034 3 discriminator 2 view .LVU750
1035:../../Middlewares/Third_Party/LwIP/src/core/pbuf.c **** 
 2550              		.loc 1 1035 3 view .LVU751
1035:../../Middlewares/Third_Party/LwIP/src/core/pbuf.c **** 
 2551              		.loc 1 1035 3 view .LVU752
 2552 000c 69B1     		cbz	r1, .L204
1032:../../Middlewares/Third_Party/LwIP/src/core/pbuf.c **** 
 2553              		.loc 1 1032 9 is_stmt 0 view .LVU753
 2554 000e 0027     		movs	r7, #0
1030:../../Middlewares/Third_Party/LwIP/src/core/pbuf.c ****   u16_t buf_copy_len;
 2555              		.loc 1 1030 9 view .LVU754
 2556 0010 3E46     		mov	r6, r7
 2557 0012 2AE0     		b	.L194
 2558              	.L203:
1034:../../Middlewares/Third_Party/LwIP/src/core/pbuf.c ****   LWIP_ERROR("pbuf_copy_partial: invalid dataptr", (dataptr != NULL), return 0;);
 2559              		.loc 1 1034 3 is_stmt 1 discriminator 1 view .LVU755
1034:../../Middlewares/Third_Party/LwIP/src/core/pbuf.c ****   LWIP_ERROR("pbuf_copy_partial: invalid dataptr", (dataptr != NULL), return 0;);
 2560              		.loc 1 1034 3 discriminator 1 view .LVU756
 2561 0014 1D4B     		ldr	r3, .L205
 2562              	.LVL237:
1034:../../Middlewares/Third_Party/LwIP/src/core/pbuf.c ****   LWIP_ERROR("pbuf_copy_partial: invalid dataptr", (dataptr != NULL), return 0;);
 2563              		.loc 1 1034 3 is_stmt 0 discriminator 1 view .LVU757
ARM GAS  /tmp/cc8sHRun.s 			page 80


 2564 0016 40F20A42 		movw	r2, #1034
 2565              	.LVL238:
1034:../../Middlewares/Third_Party/LwIP/src/core/pbuf.c ****   LWIP_ERROR("pbuf_copy_partial: invalid dataptr", (dataptr != NULL), return 0;);
 2566              		.loc 1 1034 3 discriminator 1 view .LVU758
 2567 001a 1D49     		ldr	r1, .L205+4
 2568              	.LVL239:
1034:../../Middlewares/Third_Party/LwIP/src/core/pbuf.c ****   LWIP_ERROR("pbuf_copy_partial: invalid dataptr", (dataptr != NULL), return 0;);
 2569              		.loc 1 1034 3 discriminator 1 view .LVU759
 2570 001c 1D48     		ldr	r0, .L205+8
 2571              	.LVL240:
1034:../../Middlewares/Third_Party/LwIP/src/core/pbuf.c ****   LWIP_ERROR("pbuf_copy_partial: invalid dataptr", (dataptr != NULL), return 0;);
 2572              		.loc 1 1034 3 discriminator 1 view .LVU760
 2573 001e FFF7FEFF 		bl	printf
 2574              	.LVL241:
1034:../../Middlewares/Third_Party/LwIP/src/core/pbuf.c ****   LWIP_ERROR("pbuf_copy_partial: invalid dataptr", (dataptr != NULL), return 0;);
 2575              		.loc 1 1034 3 is_stmt 1 discriminator 1 view .LVU761
1034:../../Middlewares/Third_Party/LwIP/src/core/pbuf.c ****   LWIP_ERROR("pbuf_copy_partial: invalid dataptr", (dataptr != NULL), return 0;);
 2576              		.loc 1 1034 3 discriminator 1 view .LVU762
 2577 0022 0027     		movs	r7, #0
 2578              	.LVL242:
 2579              	.L193:
1057:../../Middlewares/Third_Party/LwIP/src/core/pbuf.c **** 
 2580              		.loc 1 1057 1 is_stmt 0 view .LVU763
 2581 0024 3846     		mov	r0, r7
 2582 0026 BDE8F883 		pop	{r3, r4, r5, r6, r7, r8, r9, pc}
 2583              	.LVL243:
 2584              	.L204:
1035:../../Middlewares/Third_Party/LwIP/src/core/pbuf.c **** 
 2585              		.loc 1 1035 3 is_stmt 1 discriminator 1 view .LVU764
1035:../../Middlewares/Third_Party/LwIP/src/core/pbuf.c **** 
 2586              		.loc 1 1035 3 discriminator 1 view .LVU765
 2587 002a 184B     		ldr	r3, .L205
 2588              	.LVL244:
1035:../../Middlewares/Third_Party/LwIP/src/core/pbuf.c **** 
 2589              		.loc 1 1035 3 is_stmt 0 discriminator 1 view .LVU766
 2590 002c 40F20B42 		movw	r2, #1035
 2591              	.LVL245:
1035:../../Middlewares/Third_Party/LwIP/src/core/pbuf.c **** 
 2592              		.loc 1 1035 3 discriminator 1 view .LVU767
 2593 0030 1949     		ldr	r1, .L205+12
 2594              	.LVL246:
1035:../../Middlewares/Third_Party/LwIP/src/core/pbuf.c **** 
 2595              		.loc 1 1035 3 discriminator 1 view .LVU768
 2596 0032 1848     		ldr	r0, .L205+8
 2597              	.LVL247:
1035:../../Middlewares/Third_Party/LwIP/src/core/pbuf.c **** 
 2598              		.loc 1 1035 3 discriminator 1 view .LVU769
 2599 0034 FFF7FEFF 		bl	printf
 2600              	.LVL248:
1035:../../Middlewares/Third_Party/LwIP/src/core/pbuf.c **** 
 2601              		.loc 1 1035 3 is_stmt 1 discriminator 1 view .LVU770
1035:../../Middlewares/Third_Party/LwIP/src/core/pbuf.c **** 
 2602              		.loc 1 1035 3 discriminator 1 view .LVU771
 2603 0038 0027     		movs	r7, #0
1035:../../Middlewares/Third_Party/LwIP/src/core/pbuf.c **** 
 2604              		.loc 1 1035 3 is_stmt 0 view .LVU772
 2605 003a F3E7     		b	.L193
ARM GAS  /tmp/cc8sHRun.s 			page 81


 2606              	.LVL249:
 2607              	.L195:
1044:../../Middlewares/Third_Party/LwIP/src/core/pbuf.c ****       if (buf_copy_len > len) {
 2608              		.loc 1 1044 7 is_stmt 1 view .LVU773
1044:../../Middlewares/Third_Party/LwIP/src/core/pbuf.c ****       if (buf_copy_len > len) {
 2609              		.loc 1 1044 31 is_stmt 0 view .LVU774
 2610 003c 6C89     		ldrh	r4, [r5, #10]
1044:../../Middlewares/Third_Party/LwIP/src/core/pbuf.c ****       if (buf_copy_len > len) {
 2611              		.loc 1 1044 20 view .LVU775
 2612 003e E41A     		subs	r4, r4, r3
 2613 0040 A4B2     		uxth	r4, r4
 2614              	.LVL250:
1045:../../Middlewares/Third_Party/LwIP/src/core/pbuf.c ****         buf_copy_len = len;
 2615              		.loc 1 1045 7 is_stmt 1 view .LVU776
1045:../../Middlewares/Third_Party/LwIP/src/core/pbuf.c ****         buf_copy_len = len;
 2616              		.loc 1 1045 10 is_stmt 0 view .LVU777
 2617 0042 A145     		cmp	r9, r4
 2618 0044 00D2     		bcs	.L197
1046:../../Middlewares/Third_Party/LwIP/src/core/pbuf.c ****       }
 2619              		.loc 1 1046 22 view .LVU778
 2620 0046 4C46     		mov	r4, r9
 2621              	.LVL251:
 2622              	.L197:
1049:../../Middlewares/Third_Party/LwIP/src/core/pbuf.c ****       copied_total = (u16_t)(copied_total + buf_copy_len);
 2623              		.loc 1 1049 7 is_stmt 1 view .LVU779
 2624 0048 6968     		ldr	r1, [r5, #4]
 2625 004a 2246     		mov	r2, r4
 2626 004c 1944     		add	r1, r1, r3
 2627 004e 08EB0600 		add	r0, r8, r6
 2628 0052 FFF7FEFF 		bl	memcpy
 2629              	.LVL252:
1050:../../Middlewares/Third_Party/LwIP/src/core/pbuf.c ****       left = (u16_t)(left + buf_copy_len);
 2630              		.loc 1 1050 7 view .LVU780
1050:../../Middlewares/Third_Party/LwIP/src/core/pbuf.c ****       left = (u16_t)(left + buf_copy_len);
 2631              		.loc 1 1050 20 is_stmt 0 view .LVU781
 2632 0056 2744     		add	r7, r7, r4
 2633              	.LVL253:
1050:../../Middlewares/Third_Party/LwIP/src/core/pbuf.c ****       left = (u16_t)(left + buf_copy_len);
 2634              		.loc 1 1050 20 view .LVU782
 2635 0058 BFB2     		uxth	r7, r7
 2636              	.LVL254:
1051:../../Middlewares/Third_Party/LwIP/src/core/pbuf.c ****       len = (u16_t)(len - buf_copy_len);
 2637              		.loc 1 1051 7 is_stmt 1 view .LVU783
1051:../../Middlewares/Third_Party/LwIP/src/core/pbuf.c ****       len = (u16_t)(len - buf_copy_len);
 2638              		.loc 1 1051 12 is_stmt 0 view .LVU784
 2639 005a 2644     		add	r6, r6, r4
 2640              	.LVL255:
1051:../../Middlewares/Third_Party/LwIP/src/core/pbuf.c ****       len = (u16_t)(len - buf_copy_len);
 2641              		.loc 1 1051 12 view .LVU785
 2642 005c B6B2     		uxth	r6, r6
 2643              	.LVL256:
1052:../../Middlewares/Third_Party/LwIP/src/core/pbuf.c ****       offset = 0;
 2644              		.loc 1 1052 7 is_stmt 1 view .LVU786
1052:../../Middlewares/Third_Party/LwIP/src/core/pbuf.c ****       offset = 0;
 2645              		.loc 1 1052 11 is_stmt 0 view .LVU787
 2646 005e A9EB0404 		sub	r4, r9, r4
 2647              	.LVL257:
ARM GAS  /tmp/cc8sHRun.s 			page 82


1052:../../Middlewares/Third_Party/LwIP/src/core/pbuf.c ****       offset = 0;
 2648              		.loc 1 1052 11 view .LVU788
 2649 0062 1FFA84F9 		uxth	r9, r4
 2650              	.LVL258:
1053:../../Middlewares/Third_Party/LwIP/src/core/pbuf.c ****     }
 2651              		.loc 1 1053 7 is_stmt 1 view .LVU789
1053:../../Middlewares/Third_Party/LwIP/src/core/pbuf.c ****     }
 2652              		.loc 1 1053 14 is_stmt 0 view .LVU790
 2653 0066 0023     		movs	r3, #0
 2654              	.LVL259:
 2655              	.L196:
1038:../../Middlewares/Third_Party/LwIP/src/core/pbuf.c ****     if ((offset != 0) && (offset >= p->len)) {
 2656              		.loc 1 1038 42 is_stmt 1 discriminator 2 view .LVU791
 2657 0068 2D68     		ldr	r5, [r5]
 2658              	.LVL260:
 2659              	.L194:
1038:../../Middlewares/Third_Party/LwIP/src/core/pbuf.c ****     if ((offset != 0) && (offset >= p->len)) {
 2660              		.loc 1 1038 26 discriminator 1 view .LVU792
1038:../../Middlewares/Third_Party/LwIP/src/core/pbuf.c ****     if ((offset != 0) && (offset >= p->len)) {
 2661              		.loc 1 1038 31 is_stmt 0 discriminator 1 view .LVU793
 2662 006a 2A1E     		subs	r2, r5, #0
 2663 006c 18BF     		it	ne
 2664 006e 0122     		movne	r2, #1
1038:../../Middlewares/Third_Party/LwIP/src/core/pbuf.c ****     if ((offset != 0) && (offset >= p->len)) {
 2665              		.loc 1 1038 26 discriminator 1 view .LVU794
 2666 0070 B9F1000F 		cmp	r9, #0
 2667 0074 D6D0     		beq	.L193
1038:../../Middlewares/Third_Party/LwIP/src/core/pbuf.c ****     if ((offset != 0) && (offset >= p->len)) {
 2668              		.loc 1 1038 26 discriminator 1 view .LVU795
 2669 0076 002A     		cmp	r2, #0
 2670 0078 D4D0     		beq	.L193
1039:../../Middlewares/Third_Party/LwIP/src/core/pbuf.c ****       /* don't copy from this buffer -> on to the next */
 2671              		.loc 1 1039 5 is_stmt 1 view .LVU796
1039:../../Middlewares/Third_Party/LwIP/src/core/pbuf.c ****       /* don't copy from this buffer -> on to the next */
 2672              		.loc 1 1039 8 is_stmt 0 view .LVU797
 2673 007a 002B     		cmp	r3, #0
 2674 007c DED0     		beq	.L195
1039:../../Middlewares/Third_Party/LwIP/src/core/pbuf.c ****       /* don't copy from this buffer -> on to the next */
 2675              		.loc 1 1039 38 discriminator 1 view .LVU798
 2676 007e 6A89     		ldrh	r2, [r5, #10]
1039:../../Middlewares/Third_Party/LwIP/src/core/pbuf.c ****       /* don't copy from this buffer -> on to the next */
 2677              		.loc 1 1039 23 discriminator 1 view .LVU799
 2678 0080 9A42     		cmp	r2, r3
 2679 0082 DBD8     		bhi	.L195
1041:../../Middlewares/Third_Party/LwIP/src/core/pbuf.c ****     } else {
 2680              		.loc 1 1041 7 is_stmt 1 view .LVU800
1041:../../Middlewares/Third_Party/LwIP/src/core/pbuf.c ****     } else {
 2681              		.loc 1 1041 14 is_stmt 0 view .LVU801
 2682 0084 9B1A     		subs	r3, r3, r2
 2683              	.LVL261:
1041:../../Middlewares/Third_Party/LwIP/src/core/pbuf.c ****     } else {
 2684              		.loc 1 1041 14 view .LVU802
 2685 0086 9BB2     		uxth	r3, r3
 2686              	.LVL262:
1041:../../Middlewares/Third_Party/LwIP/src/core/pbuf.c ****     } else {
 2687              		.loc 1 1041 14 view .LVU803
 2688 0088 EEE7     		b	.L196
ARM GAS  /tmp/cc8sHRun.s 			page 83


 2689              	.L206:
 2690 008a 00BF     		.align	2
 2691              	.L205:
 2692 008c 00000000 		.word	.LC0
 2693 0090 00000000 		.word	.LC26
 2694 0094 40000000 		.word	.LC2
 2695 0098 20000000 		.word	.LC27
 2696              		.cfi_endproc
 2697              	.LFE192:
 2699              		.section	.rodata.pbuf_get_contiguous.str1.4,"aMS",%progbits,1
 2700              		.align	2
 2701              	.LC28:
 2702 0000 70627566 		.ascii	"pbuf_get_contiguous: invalid buf\000"
 2702      5F676574 
 2702      5F636F6E 
 2702      74696775 
 2702      6F75733A 
 2703 0021 000000   		.align	2
 2704              	.LC29:
 2705 0024 70627566 		.ascii	"pbuf_get_contiguous: invalid dataptr\000"
 2705      5F676574 
 2705      5F636F6E 
 2705      74696775 
 2705      6F75733A 
 2706              		.section	.text.pbuf_get_contiguous,"ax",%progbits
 2707              		.align	1
 2708              		.global	pbuf_get_contiguous
 2709              		.syntax unified
 2710              		.thumb
 2711              		.thumb_func
 2713              	pbuf_get_contiguous:
 2714              	.LVL263:
 2715              	.LFB193:
1075:../../Middlewares/Third_Party/LwIP/src/core/pbuf.c ****   const struct pbuf *q;
 2716              		.loc 1 1075 1 is_stmt 1 view -0
 2717              		.cfi_startproc
 2718              		@ args = 4, pretend = 0, frame = 8
 2719              		@ frame_needed = 0, uses_anonymous_args = 0
1075:../../Middlewares/Third_Party/LwIP/src/core/pbuf.c ****   const struct pbuf *q;
 2720              		.loc 1 1075 1 is_stmt 0 view .LVU805
 2721 0000 70B5     		push	{r4, r5, r6, lr}
 2722              	.LCFI32:
 2723              		.cfi_def_cfa_offset 16
 2724              		.cfi_offset 4, -16
 2725              		.cfi_offset 5, -12
 2726              		.cfi_offset 6, -8
 2727              		.cfi_offset 14, -4
 2728 0002 82B0     		sub	sp, sp, #8
 2729              	.LCFI33:
 2730              		.cfi_def_cfa_offset 24
1076:../../Middlewares/Third_Party/LwIP/src/core/pbuf.c ****   u16_t out_offset;
 2731              		.loc 1 1076 3 is_stmt 1 view .LVU806
1077:../../Middlewares/Third_Party/LwIP/src/core/pbuf.c **** 
 2732              		.loc 1 1077 3 view .LVU807
1079:../../Middlewares/Third_Party/LwIP/src/core/pbuf.c ****   LWIP_ERROR("pbuf_get_contiguous: invalid dataptr", (buffer != NULL), return NULL;);
 2733              		.loc 1 1079 3 view .LVU808
1079:../../Middlewares/Third_Party/LwIP/src/core/pbuf.c ****   LWIP_ERROR("pbuf_get_contiguous: invalid dataptr", (buffer != NULL), return NULL;);
ARM GAS  /tmp/cc8sHRun.s 			page 84


 2734              		.loc 1 1079 3 view .LVU809
 2735 0004 0446     		mov	r4, r0
 2736 0006 A8B1     		cbz	r0, .L215
 2737 0008 0E46     		mov	r6, r1
 2738 000a 1D46     		mov	r5, r3
1079:../../Middlewares/Third_Party/LwIP/src/core/pbuf.c ****   LWIP_ERROR("pbuf_get_contiguous: invalid dataptr", (buffer != NULL), return NULL;);
 2739              		.loc 1 1079 3 discriminator 2 view .LVU810
1079:../../Middlewares/Third_Party/LwIP/src/core/pbuf.c ****   LWIP_ERROR("pbuf_get_contiguous: invalid dataptr", (buffer != NULL), return NULL;);
 2740              		.loc 1 1079 3 discriminator 2 view .LVU811
1080:../../Middlewares/Third_Party/LwIP/src/core/pbuf.c ****   LWIP_ERROR("pbuf_get_contiguous: invalid dataptr", (bufsize >= len), return NULL;);
 2741              		.loc 1 1080 3 view .LVU812
1080:../../Middlewares/Third_Party/LwIP/src/core/pbuf.c ****   LWIP_ERROR("pbuf_get_contiguous: invalid dataptr", (bufsize >= len), return NULL;);
 2742              		.loc 1 1080 3 view .LVU813
 2743 000c D9B1     		cbz	r1, .L216
1080:../../Middlewares/Third_Party/LwIP/src/core/pbuf.c ****   LWIP_ERROR("pbuf_get_contiguous: invalid dataptr", (bufsize >= len), return NULL;);
 2744              		.loc 1 1080 3 discriminator 2 view .LVU814
1080:../../Middlewares/Third_Party/LwIP/src/core/pbuf.c ****   LWIP_ERROR("pbuf_get_contiguous: invalid dataptr", (bufsize >= len), return NULL;);
 2745              		.loc 1 1080 3 discriminator 2 view .LVU815
1081:../../Middlewares/Third_Party/LwIP/src/core/pbuf.c **** 
 2746              		.loc 1 1081 3 view .LVU816
1081:../../Middlewares/Third_Party/LwIP/src/core/pbuf.c **** 
 2747              		.loc 1 1081 3 view .LVU817
 2748 000e 9342     		cmp	r3, r2
 2749 0010 22D8     		bhi	.L217
1081:../../Middlewares/Third_Party/LwIP/src/core/pbuf.c **** 
 2750              		.loc 1 1081 3 discriminator 2 view .LVU818
1081:../../Middlewares/Third_Party/LwIP/src/core/pbuf.c **** 
 2751              		.loc 1 1081 3 discriminator 2 view .LVU819
1083:../../Middlewares/Third_Party/LwIP/src/core/pbuf.c ****   if (q != NULL) {
 2752              		.loc 1 1083 3 view .LVU820
1083:../../Middlewares/Third_Party/LwIP/src/core/pbuf.c ****   if (q != NULL) {
 2753              		.loc 1 1083 7 is_stmt 0 view .LVU821
 2754 0012 0DF10602 		add	r2, sp, #6
 2755              	.LVL264:
1083:../../Middlewares/Third_Party/LwIP/src/core/pbuf.c ****   if (q != NULL) {
 2756              		.loc 1 1083 7 view .LVU822
 2757 0016 BDF81810 		ldrh	r1, [sp, #24]
 2758              	.LVL265:
1083:../../Middlewares/Third_Party/LwIP/src/core/pbuf.c ****   if (q != NULL) {
 2759              		.loc 1 1083 7 view .LVU823
 2760 001a FFF7FEFF 		bl	pbuf_skip_const
 2761              	.LVL266:
1084:../../Middlewares/Third_Party/LwIP/src/core/pbuf.c ****     if (q->len >= (out_offset + len)) {
 2762              		.loc 1 1084 3 is_stmt 1 view .LVU824
1084:../../Middlewares/Third_Party/LwIP/src/core/pbuf.c ****     if (q->len >= (out_offset + len)) {
 2763              		.loc 1 1084 6 is_stmt 0 view .LVU825
 2764 001e 38B1     		cbz	r0, .L207
1085:../../Middlewares/Third_Party/LwIP/src/core/pbuf.c ****       /* all data in this pbuf, return zero-copy */
 2765              		.loc 1 1085 5 is_stmt 1 view .LVU826
1085:../../Middlewares/Third_Party/LwIP/src/core/pbuf.c ****       /* all data in this pbuf, return zero-copy */
 2766              		.loc 1 1085 10 is_stmt 0 view .LVU827
 2767 0020 4189     		ldrh	r1, [r0, #10]
1085:../../Middlewares/Third_Party/LwIP/src/core/pbuf.c ****       /* all data in this pbuf, return zero-copy */
 2768              		.loc 1 1085 31 view .LVU828
 2769 0022 BDF80630 		ldrh	r3, [sp, #6]
 2770 0026 5A19     		adds	r2, r3, r5
1085:../../Middlewares/Third_Party/LwIP/src/core/pbuf.c ****       /* all data in this pbuf, return zero-copy */
ARM GAS  /tmp/cc8sHRun.s 			page 85


 2771              		.loc 1 1085 8 view .LVU829
 2772 0028 9142     		cmp	r1, r2
 2773 002a 1EDB     		blt	.L212
1087:../../Middlewares/Third_Party/LwIP/src/core/pbuf.c ****     }
 2774              		.loc 1 1087 7 is_stmt 1 view .LVU830
1087:../../Middlewares/Third_Party/LwIP/src/core/pbuf.c ****     }
 2775              		.loc 1 1087 23 is_stmt 0 view .LVU831
 2776 002c 4068     		ldr	r0, [r0, #4]
 2777              	.LVL267:
1087:../../Middlewares/Third_Party/LwIP/src/core/pbuf.c ****     }
 2778              		.loc 1 1087 33 view .LVU832
 2779 002e 1844     		add	r0, r0, r3
 2780              	.LVL268:
 2781              	.L207:
1098:../../Middlewares/Third_Party/LwIP/src/core/pbuf.c **** 
 2782              		.loc 1 1098 1 view .LVU833
 2783 0030 02B0     		add	sp, sp, #8
 2784              	.LCFI34:
 2785              		.cfi_remember_state
 2786              		.cfi_def_cfa_offset 16
 2787              		@ sp needed
 2788 0032 70BD     		pop	{r4, r5, r6, pc}
 2789              	.LVL269:
 2790              	.L215:
 2791              	.LCFI35:
 2792              		.cfi_restore_state
1079:../../Middlewares/Third_Party/LwIP/src/core/pbuf.c ****   LWIP_ERROR("pbuf_get_contiguous: invalid dataptr", (buffer != NULL), return NULL;);
 2793              		.loc 1 1079 3 is_stmt 1 discriminator 1 view .LVU834
1079:../../Middlewares/Third_Party/LwIP/src/core/pbuf.c ****   LWIP_ERROR("pbuf_get_contiguous: invalid dataptr", (buffer != NULL), return NULL;);
 2794              		.loc 1 1079 3 discriminator 1 view .LVU835
 2795 0034 124B     		ldr	r3, .L219
 2796              	.LVL270:
1079:../../Middlewares/Third_Party/LwIP/src/core/pbuf.c ****   LWIP_ERROR("pbuf_get_contiguous: invalid dataptr", (buffer != NULL), return NULL;);
 2797              		.loc 1 1079 3 is_stmt 0 discriminator 1 view .LVU836
 2798 0036 40F23742 		movw	r2, #1079
 2799              	.LVL271:
1079:../../Middlewares/Third_Party/LwIP/src/core/pbuf.c ****   LWIP_ERROR("pbuf_get_contiguous: invalid dataptr", (buffer != NULL), return NULL;);
 2800              		.loc 1 1079 3 discriminator 1 view .LVU837
 2801 003a 1249     		ldr	r1, .L219+4
 2802              	.LVL272:
1079:../../Middlewares/Third_Party/LwIP/src/core/pbuf.c ****   LWIP_ERROR("pbuf_get_contiguous: invalid dataptr", (buffer != NULL), return NULL;);
 2803              		.loc 1 1079 3 discriminator 1 view .LVU838
 2804 003c 1248     		ldr	r0, .L219+8
 2805              	.LVL273:
1079:../../Middlewares/Third_Party/LwIP/src/core/pbuf.c ****   LWIP_ERROR("pbuf_get_contiguous: invalid dataptr", (buffer != NULL), return NULL;);
 2806              		.loc 1 1079 3 discriminator 1 view .LVU839
 2807 003e FFF7FEFF 		bl	printf
 2808              	.LVL274:
1079:../../Middlewares/Third_Party/LwIP/src/core/pbuf.c ****   LWIP_ERROR("pbuf_get_contiguous: invalid dataptr", (buffer != NULL), return NULL;);
 2809              		.loc 1 1079 3 is_stmt 1 discriminator 1 view .LVU840
1079:../../Middlewares/Third_Party/LwIP/src/core/pbuf.c ****   LWIP_ERROR("pbuf_get_contiguous: invalid dataptr", (buffer != NULL), return NULL;);
 2810              		.loc 1 1079 3 discriminator 1 view .LVU841
 2811 0042 2046     		mov	r0, r4
1079:../../Middlewares/Third_Party/LwIP/src/core/pbuf.c ****   LWIP_ERROR("pbuf_get_contiguous: invalid dataptr", (buffer != NULL), return NULL;);
 2812              		.loc 1 1079 3 is_stmt 0 view .LVU842
 2813 0044 F4E7     		b	.L207
 2814              	.LVL275:
ARM GAS  /tmp/cc8sHRun.s 			page 86


 2815              	.L216:
1080:../../Middlewares/Third_Party/LwIP/src/core/pbuf.c ****   LWIP_ERROR("pbuf_get_contiguous: invalid dataptr", (bufsize >= len), return NULL;);
 2816              		.loc 1 1080 3 is_stmt 1 discriminator 1 view .LVU843
1080:../../Middlewares/Third_Party/LwIP/src/core/pbuf.c ****   LWIP_ERROR("pbuf_get_contiguous: invalid dataptr", (bufsize >= len), return NULL;);
 2817              		.loc 1 1080 3 discriminator 1 view .LVU844
 2818 0046 0E4B     		ldr	r3, .L219
 2819              	.LVL276:
1080:../../Middlewares/Third_Party/LwIP/src/core/pbuf.c ****   LWIP_ERROR("pbuf_get_contiguous: invalid dataptr", (bufsize >= len), return NULL;);
 2820              		.loc 1 1080 3 is_stmt 0 discriminator 1 view .LVU845
 2821 0048 4FF48762 		mov	r2, #1080
 2822              	.LVL277:
1080:../../Middlewares/Third_Party/LwIP/src/core/pbuf.c ****   LWIP_ERROR("pbuf_get_contiguous: invalid dataptr", (bufsize >= len), return NULL;);
 2823              		.loc 1 1080 3 discriminator 1 view .LVU846
 2824 004c 0F49     		ldr	r1, .L219+12
 2825              	.LVL278:
1080:../../Middlewares/Third_Party/LwIP/src/core/pbuf.c ****   LWIP_ERROR("pbuf_get_contiguous: invalid dataptr", (bufsize >= len), return NULL;);
 2826              		.loc 1 1080 3 discriminator 1 view .LVU847
 2827 004e 0E48     		ldr	r0, .L219+8
 2828              	.LVL279:
1080:../../Middlewares/Third_Party/LwIP/src/core/pbuf.c ****   LWIP_ERROR("pbuf_get_contiguous: invalid dataptr", (bufsize >= len), return NULL;);
 2829              		.loc 1 1080 3 discriminator 1 view .LVU848
 2830 0050 FFF7FEFF 		bl	printf
 2831              	.LVL280:
1080:../../Middlewares/Third_Party/LwIP/src/core/pbuf.c ****   LWIP_ERROR("pbuf_get_contiguous: invalid dataptr", (bufsize >= len), return NULL;);
 2832              		.loc 1 1080 3 is_stmt 1 discriminator 1 view .LVU849
1080:../../Middlewares/Third_Party/LwIP/src/core/pbuf.c ****   LWIP_ERROR("pbuf_get_contiguous: invalid dataptr", (bufsize >= len), return NULL;);
 2833              		.loc 1 1080 3 discriminator 1 view .LVU850
 2834 0054 3046     		mov	r0, r6
1080:../../Middlewares/Third_Party/LwIP/src/core/pbuf.c ****   LWIP_ERROR("pbuf_get_contiguous: invalid dataptr", (bufsize >= len), return NULL;);
 2835              		.loc 1 1080 3 is_stmt 0 view .LVU851
 2836 0056 EBE7     		b	.L207
 2837              	.LVL281:
 2838              	.L217:
1081:../../Middlewares/Third_Party/LwIP/src/core/pbuf.c **** 
 2839              		.loc 1 1081 3 is_stmt 1 discriminator 1 view .LVU852
1081:../../Middlewares/Third_Party/LwIP/src/core/pbuf.c **** 
 2840              		.loc 1 1081 3 discriminator 1 view .LVU853
 2841 0058 094B     		ldr	r3, .L219
 2842              	.LVL282:
1081:../../Middlewares/Third_Party/LwIP/src/core/pbuf.c **** 
 2843              		.loc 1 1081 3 is_stmt 0 discriminator 1 view .LVU854
 2844 005a 40F23942 		movw	r2, #1081
 2845              	.LVL283:
1081:../../Middlewares/Third_Party/LwIP/src/core/pbuf.c **** 
 2846              		.loc 1 1081 3 discriminator 1 view .LVU855
 2847 005e 0B49     		ldr	r1, .L219+12
 2848              	.LVL284:
1081:../../Middlewares/Third_Party/LwIP/src/core/pbuf.c **** 
 2849              		.loc 1 1081 3 discriminator 1 view .LVU856
 2850 0060 0948     		ldr	r0, .L219+8
 2851              	.LVL285:
1081:../../Middlewares/Third_Party/LwIP/src/core/pbuf.c **** 
 2852              		.loc 1 1081 3 discriminator 1 view .LVU857
 2853 0062 FFF7FEFF 		bl	printf
 2854              	.LVL286:
1081:../../Middlewares/Third_Party/LwIP/src/core/pbuf.c **** 
 2855              		.loc 1 1081 3 is_stmt 1 discriminator 1 view .LVU858
ARM GAS  /tmp/cc8sHRun.s 			page 87


1081:../../Middlewares/Third_Party/LwIP/src/core/pbuf.c **** 
 2856              		.loc 1 1081 3 discriminator 1 view .LVU859
 2857 0066 0020     		movs	r0, #0
1081:../../Middlewares/Third_Party/LwIP/src/core/pbuf.c **** 
 2858              		.loc 1 1081 3 is_stmt 0 view .LVU860
 2859 0068 E2E7     		b	.L207
 2860              	.LVL287:
 2861              	.L212:
1090:../../Middlewares/Third_Party/LwIP/src/core/pbuf.c ****       /* copying failed: pbuf is too short */
 2862              		.loc 1 1090 5 is_stmt 1 view .LVU861
1090:../../Middlewares/Third_Party/LwIP/src/core/pbuf.c ****       /* copying failed: pbuf is too short */
 2863              		.loc 1 1090 9 is_stmt 0 view .LVU862
 2864 006a 2A46     		mov	r2, r5
 2865 006c 3146     		mov	r1, r6
 2866 006e FFF7FEFF 		bl	pbuf_copy_partial
 2867              	.LVL288:
1090:../../Middlewares/Third_Party/LwIP/src/core/pbuf.c ****       /* copying failed: pbuf is too short */
 2868              		.loc 1 1090 8 discriminator 1 view .LVU863
 2869 0072 A842     		cmp	r0, r5
 2870 0074 01D1     		bne	.L218
1094:../../Middlewares/Third_Party/LwIP/src/core/pbuf.c ****   }
 2871              		.loc 1 1094 12 view .LVU864
 2872 0076 3046     		mov	r0, r6
 2873 0078 DAE7     		b	.L207
 2874              	.L218:
1092:../../Middlewares/Third_Party/LwIP/src/core/pbuf.c ****     }
 2875              		.loc 1 1092 14 view .LVU865
 2876 007a 0020     		movs	r0, #0
 2877 007c D8E7     		b	.L207
 2878              	.L220:
 2879 007e 00BF     		.align	2
 2880              	.L219:
 2881 0080 00000000 		.word	.LC0
 2882 0084 00000000 		.word	.LC28
 2883 0088 40000000 		.word	.LC2
 2884 008c 24000000 		.word	.LC29
 2885              		.cfi_endproc
 2886              	.LFE193:
 2888              		.section	.text.pbuf_skip,"ax",%progbits
 2889              		.align	1
 2890              		.global	pbuf_skip
 2891              		.syntax unified
 2892              		.thumb
 2893              		.thumb_func
 2895              	pbuf_skip:
 2896              	.LVL289:
 2897              	.LFB195:
1167:../../Middlewares/Third_Party/LwIP/src/core/pbuf.c **** 
1168:../../Middlewares/Third_Party/LwIP/src/core/pbuf.c **** /**
1169:../../Middlewares/Third_Party/LwIP/src/core/pbuf.c ****  * @ingroup pbuf
1170:../../Middlewares/Third_Party/LwIP/src/core/pbuf.c ****  * Skip a number of bytes at the start of a pbuf
1171:../../Middlewares/Third_Party/LwIP/src/core/pbuf.c ****  *
1172:../../Middlewares/Third_Party/LwIP/src/core/pbuf.c ****  * @param in input pbuf
1173:../../Middlewares/Third_Party/LwIP/src/core/pbuf.c ****  * @param in_offset offset to skip
1174:../../Middlewares/Third_Party/LwIP/src/core/pbuf.c ****  * @param out_offset resulting offset in the returned pbuf
1175:../../Middlewares/Third_Party/LwIP/src/core/pbuf.c ****  * @return the pbuf in the queue where the offset is
1176:../../Middlewares/Third_Party/LwIP/src/core/pbuf.c ****  */
ARM GAS  /tmp/cc8sHRun.s 			page 88


1177:../../Middlewares/Third_Party/LwIP/src/core/pbuf.c **** struct pbuf *
1178:../../Middlewares/Third_Party/LwIP/src/core/pbuf.c **** pbuf_skip(struct pbuf *in, u16_t in_offset, u16_t *out_offset)
1179:../../Middlewares/Third_Party/LwIP/src/core/pbuf.c **** {
 2898              		.loc 1 1179 1 is_stmt 1 view -0
 2899              		.cfi_startproc
 2900              		@ args = 0, pretend = 0, frame = 0
 2901              		@ frame_needed = 0, uses_anonymous_args = 0
 2902              		.loc 1 1179 1 is_stmt 0 view .LVU867
 2903 0000 08B5     		push	{r3, lr}
 2904              	.LCFI36:
 2905              		.cfi_def_cfa_offset 8
 2906              		.cfi_offset 3, -8
 2907              		.cfi_offset 14, -4
1180:../../Middlewares/Third_Party/LwIP/src/core/pbuf.c ****   const struct pbuf *out = pbuf_skip_const(in, in_offset, out_offset);
 2908              		.loc 1 1180 3 is_stmt 1 view .LVU868
 2909              		.loc 1 1180 28 is_stmt 0 view .LVU869
 2910 0002 FFF7FEFF 		bl	pbuf_skip_const
 2911              	.LVL290:
1181:../../Middlewares/Third_Party/LwIP/src/core/pbuf.c ****   return LWIP_CONST_CAST(struct pbuf *, out);
 2912              		.loc 1 1181 3 is_stmt 1 view .LVU870
1182:../../Middlewares/Third_Party/LwIP/src/core/pbuf.c **** }
 2913              		.loc 1 1182 1 is_stmt 0 view .LVU871
 2914 0006 08BD     		pop	{r3, pc}
 2915              		.cfi_endproc
 2916              	.LFE195:
 2918              		.section	.rodata.pbuf_take.str1.4,"aMS",%progbits,1
 2919              		.align	2
 2920              	.LC30:
 2921 0000 70627566 		.ascii	"pbuf_take: invalid buf\000"
 2921      5F74616B 
 2921      653A2069 
 2921      6E76616C 
 2921      69642062 
 2922 0017 00       		.align	2
 2923              	.LC31:
 2924 0018 70627566 		.ascii	"pbuf_take: invalid dataptr\000"
 2924      5F74616B 
 2924      653A2069 
 2924      6E76616C 
 2924      69642064 
 2925 0033 00       		.align	2
 2926              	.LC32:
 2927 0034 70627566 		.ascii	"pbuf_take: buf not large enough\000"
 2927      5F74616B 
 2927      653A2062 
 2927      7566206E 
 2927      6F74206C 
 2928              		.align	2
 2929              	.LC33:
 2930 0054 70627566 		.ascii	"pbuf_take: invalid pbuf\000"
 2930      5F74616B 
 2930      653A2069 
 2930      6E76616C 
 2930      69642070 
 2931              		.align	2
 2932              	.LC34:
 2933 006c 64696420 		.ascii	"did not copy all data\000"
ARM GAS  /tmp/cc8sHRun.s 			page 89


 2933      6E6F7420 
 2933      636F7079 
 2933      20616C6C 
 2933      20646174 
 2934              		.section	.text.pbuf_take,"ax",%progbits
 2935              		.align	1
 2936              		.global	pbuf_take
 2937              		.syntax unified
 2938              		.thumb
 2939              		.thumb_func
 2941              	pbuf_take:
 2942              	.LVL291:
 2943              	.LFB196:
1183:../../Middlewares/Third_Party/LwIP/src/core/pbuf.c **** 
1184:../../Middlewares/Third_Party/LwIP/src/core/pbuf.c **** /**
1185:../../Middlewares/Third_Party/LwIP/src/core/pbuf.c ****  * @ingroup pbuf
1186:../../Middlewares/Third_Party/LwIP/src/core/pbuf.c ****  * Copy application supplied data into a pbuf.
1187:../../Middlewares/Third_Party/LwIP/src/core/pbuf.c ****  * This function can only be used to copy the equivalent of buf->tot_len data.
1188:../../Middlewares/Third_Party/LwIP/src/core/pbuf.c ****  *
1189:../../Middlewares/Third_Party/LwIP/src/core/pbuf.c ****  * @param buf pbuf to fill with data
1190:../../Middlewares/Third_Party/LwIP/src/core/pbuf.c ****  * @param dataptr application supplied data buffer
1191:../../Middlewares/Third_Party/LwIP/src/core/pbuf.c ****  * @param len length of the application supplied data buffer
1192:../../Middlewares/Third_Party/LwIP/src/core/pbuf.c ****  *
1193:../../Middlewares/Third_Party/LwIP/src/core/pbuf.c ****  * @return ERR_OK if successful, ERR_MEM if the pbuf is not big enough
1194:../../Middlewares/Third_Party/LwIP/src/core/pbuf.c ****  */
1195:../../Middlewares/Third_Party/LwIP/src/core/pbuf.c **** err_t
1196:../../Middlewares/Third_Party/LwIP/src/core/pbuf.c **** pbuf_take(struct pbuf *buf, const void *dataptr, u16_t len)
1197:../../Middlewares/Third_Party/LwIP/src/core/pbuf.c **** {
 2944              		.loc 1 1197 1 is_stmt 1 view -0
 2945              		.cfi_startproc
 2946              		@ args = 0, pretend = 0, frame = 0
 2947              		@ frame_needed = 0, uses_anonymous_args = 0
 2948              		.loc 1 1197 1 is_stmt 0 view .LVU873
 2949 0000 2DE9F843 		push	{r3, r4, r5, r6, r7, r8, r9, lr}
 2950              	.LCFI37:
 2951              		.cfi_def_cfa_offset 32
 2952              		.cfi_offset 3, -32
 2953              		.cfi_offset 4, -28
 2954              		.cfi_offset 5, -24
 2955              		.cfi_offset 6, -20
 2956              		.cfi_offset 7, -16
 2957              		.cfi_offset 8, -12
 2958              		.cfi_offset 9, -8
 2959              		.cfi_offset 14, -4
1198:../../Middlewares/Third_Party/LwIP/src/core/pbuf.c ****   struct pbuf *p;
 2960              		.loc 1 1198 3 is_stmt 1 view .LVU874
1199:../../Middlewares/Third_Party/LwIP/src/core/pbuf.c ****   size_t buf_copy_len;
 2961              		.loc 1 1199 3 view .LVU875
1200:../../Middlewares/Third_Party/LwIP/src/core/pbuf.c ****   size_t total_copy_len = len;
 2962              		.loc 1 1200 3 view .LVU876
 2963              	.LVL292:
1201:../../Middlewares/Third_Party/LwIP/src/core/pbuf.c ****   size_t copied_total = 0;
 2964              		.loc 1 1201 3 view .LVU877
1202:../../Middlewares/Third_Party/LwIP/src/core/pbuf.c **** 
1203:../../Middlewares/Third_Party/LwIP/src/core/pbuf.c ****   LWIP_ERROR("pbuf_take: invalid buf", (buf != NULL), return ERR_ARG;);
 2965              		.loc 1 1203 3 view .LVU878
 2966              		.loc 1 1203 3 view .LVU879
ARM GAS  /tmp/cc8sHRun.s 			page 90


 2967 0004 48B1     		cbz	r0, .L234
 2968 0006 8846     		mov	r8, r1
 2969 0008 9146     		mov	r9, r2
 2970              	.LVL293:
 2971              		.loc 1 1203 3 is_stmt 0 view .LVU880
 2972 000a 0546     		mov	r5, r0
 2973              		.loc 1 1203 3 is_stmt 1 discriminator 2 view .LVU881
 2974              		.loc 1 1203 3 discriminator 2 view .LVU882
1204:../../Middlewares/Third_Party/LwIP/src/core/pbuf.c ****   LWIP_ERROR("pbuf_take: invalid dataptr", (dataptr != NULL), return ERR_ARG;);
 2975              		.loc 1 1204 3 view .LVU883
 2976              		.loc 1 1204 3 view .LVU884
 2977 000c 79B1     		cbz	r1, .L235
 2978              		.loc 1 1204 3 discriminator 2 view .LVU885
 2979              		.loc 1 1204 3 discriminator 2 view .LVU886
1205:../../Middlewares/Third_Party/LwIP/src/core/pbuf.c ****   LWIP_ERROR("pbuf_take: buf not large enough", (buf->tot_len >= len), return ERR_MEM;);
 2980              		.loc 1 1205 3 view .LVU887
 2981              		.loc 1 1205 3 view .LVU888
 2982 000e 0389     		ldrh	r3, [r0, #8]
 2983 0010 9342     		cmp	r3, r2
 2984 0012 16D3     		bcc	.L236
1200:../../Middlewares/Third_Party/LwIP/src/core/pbuf.c ****   size_t copied_total = 0;
 2985              		.loc 1 1200 10 is_stmt 0 view .LVU889
 2986 0014 1646     		mov	r6, r2
1201:../../Middlewares/Third_Party/LwIP/src/core/pbuf.c **** 
 2987              		.loc 1 1201 10 view .LVU890
 2988 0016 0027     		movs	r7, #0
 2989 0018 2EE0     		b	.L227
 2990              	.LVL294:
 2991              	.L234:
1203:../../Middlewares/Third_Party/LwIP/src/core/pbuf.c ****   LWIP_ERROR("pbuf_take: invalid dataptr", (dataptr != NULL), return ERR_ARG;);
 2992              		.loc 1 1203 3 is_stmt 1 discriminator 1 view .LVU891
1203:../../Middlewares/Third_Party/LwIP/src/core/pbuf.c ****   LWIP_ERROR("pbuf_take: invalid dataptr", (dataptr != NULL), return ERR_ARG;);
 2993              		.loc 1 1203 3 discriminator 1 view .LVU892
 2994 001a 224B     		ldr	r3, .L240
 2995 001c 40F2B342 		movw	r2, #1203
 2996              	.LVL295:
1203:../../Middlewares/Third_Party/LwIP/src/core/pbuf.c ****   LWIP_ERROR("pbuf_take: invalid dataptr", (dataptr != NULL), return ERR_ARG;);
 2997              		.loc 1 1203 3 is_stmt 0 discriminator 1 view .LVU893
 2998 0020 2149     		ldr	r1, .L240+4
 2999              	.LVL296:
1203:../../Middlewares/Third_Party/LwIP/src/core/pbuf.c ****   LWIP_ERROR("pbuf_take: invalid dataptr", (dataptr != NULL), return ERR_ARG;);
 3000              		.loc 1 1203 3 discriminator 1 view .LVU894
 3001 0022 2248     		ldr	r0, .L240+8
 3002              	.LVL297:
1203:../../Middlewares/Third_Party/LwIP/src/core/pbuf.c ****   LWIP_ERROR("pbuf_take: invalid dataptr", (dataptr != NULL), return ERR_ARG;);
 3003              		.loc 1 1203 3 discriminator 1 view .LVU895
 3004 0024 FFF7FEFF 		bl	printf
 3005              	.LVL298:
1203:../../Middlewares/Third_Party/LwIP/src/core/pbuf.c ****   LWIP_ERROR("pbuf_take: invalid dataptr", (dataptr != NULL), return ERR_ARG;);
 3006              		.loc 1 1203 3 is_stmt 1 discriminator 1 view .LVU896
1203:../../Middlewares/Third_Party/LwIP/src/core/pbuf.c ****   LWIP_ERROR("pbuf_take: invalid dataptr", (dataptr != NULL), return ERR_ARG;);
 3007              		.loc 1 1203 3 discriminator 1 view .LVU897
 3008 0028 6FF00F00 		mvn	r0, #15
1203:../../Middlewares/Third_Party/LwIP/src/core/pbuf.c ****   LWIP_ERROR("pbuf_take: invalid dataptr", (dataptr != NULL), return ERR_ARG;);
 3009              		.loc 1 1203 3 is_stmt 0 view .LVU898
 3010 002c 2FE0     		b	.L225
 3011              	.LVL299:
ARM GAS  /tmp/cc8sHRun.s 			page 91


 3012              	.L235:
1204:../../Middlewares/Third_Party/LwIP/src/core/pbuf.c ****   LWIP_ERROR("pbuf_take: buf not large enough", (buf->tot_len >= len), return ERR_MEM;);
 3013              		.loc 1 1204 3 is_stmt 1 discriminator 1 view .LVU899
1204:../../Middlewares/Third_Party/LwIP/src/core/pbuf.c ****   LWIP_ERROR("pbuf_take: buf not large enough", (buf->tot_len >= len), return ERR_MEM;);
 3014              		.loc 1 1204 3 discriminator 1 view .LVU900
 3015 002e 1D4B     		ldr	r3, .L240
 3016 0030 40F2B442 		movw	r2, #1204
 3017              	.LVL300:
1204:../../Middlewares/Third_Party/LwIP/src/core/pbuf.c ****   LWIP_ERROR("pbuf_take: buf not large enough", (buf->tot_len >= len), return ERR_MEM;);
 3018              		.loc 1 1204 3 is_stmt 0 discriminator 1 view .LVU901
 3019 0034 1E49     		ldr	r1, .L240+12
 3020              	.LVL301:
1204:../../Middlewares/Third_Party/LwIP/src/core/pbuf.c ****   LWIP_ERROR("pbuf_take: buf not large enough", (buf->tot_len >= len), return ERR_MEM;);
 3021              		.loc 1 1204 3 discriminator 1 view .LVU902
 3022 0036 1D48     		ldr	r0, .L240+8
 3023              	.LVL302:
1204:../../Middlewares/Third_Party/LwIP/src/core/pbuf.c ****   LWIP_ERROR("pbuf_take: buf not large enough", (buf->tot_len >= len), return ERR_MEM;);
 3024              		.loc 1 1204 3 discriminator 1 view .LVU903
 3025 0038 FFF7FEFF 		bl	printf
 3026              	.LVL303:
1204:../../Middlewares/Third_Party/LwIP/src/core/pbuf.c ****   LWIP_ERROR("pbuf_take: buf not large enough", (buf->tot_len >= len), return ERR_MEM;);
 3027              		.loc 1 1204 3 is_stmt 1 discriminator 1 view .LVU904
1204:../../Middlewares/Third_Party/LwIP/src/core/pbuf.c ****   LWIP_ERROR("pbuf_take: buf not large enough", (buf->tot_len >= len), return ERR_MEM;);
 3028              		.loc 1 1204 3 discriminator 1 view .LVU905
 3029 003c 6FF00F00 		mvn	r0, #15
1204:../../Middlewares/Third_Party/LwIP/src/core/pbuf.c ****   LWIP_ERROR("pbuf_take: buf not large enough", (buf->tot_len >= len), return ERR_MEM;);
 3030              		.loc 1 1204 3 is_stmt 0 view .LVU906
 3031 0040 25E0     		b	.L225
 3032              	.LVL304:
 3033              	.L236:
 3034              		.loc 1 1205 3 is_stmt 1 discriminator 1 view .LVU907
 3035              		.loc 1 1205 3 discriminator 1 view .LVU908
 3036 0042 184B     		ldr	r3, .L240
 3037 0044 40F2B542 		movw	r2, #1205
 3038              	.LVL305:
 3039              		.loc 1 1205 3 is_stmt 0 discriminator 1 view .LVU909
 3040 0048 1A49     		ldr	r1, .L240+16
 3041              	.LVL306:
 3042              		.loc 1 1205 3 discriminator 1 view .LVU910
 3043 004a 1848     		ldr	r0, .L240+8
 3044              	.LVL307:
 3045              		.loc 1 1205 3 discriminator 1 view .LVU911
 3046 004c FFF7FEFF 		bl	printf
 3047              	.LVL308:
 3048              		.loc 1 1205 3 is_stmt 1 discriminator 1 view .LVU912
 3049              		.loc 1 1205 3 discriminator 1 view .LVU913
 3050 0050 4FF0FF30 		mov	r0, #-1
 3051              		.loc 1 1205 3 is_stmt 0 view .LVU914
 3052 0054 1BE0     		b	.L225
 3053              	.LVL309:
 3054              	.L238:
1206:../../Middlewares/Third_Party/LwIP/src/core/pbuf.c **** 
1207:../../Middlewares/Third_Party/LwIP/src/core/pbuf.c ****   if ((buf == NULL) || (dataptr == NULL) || (buf->tot_len < len)) {
1208:../../Middlewares/Third_Party/LwIP/src/core/pbuf.c ****     return ERR_ARG;
1209:../../Middlewares/Third_Party/LwIP/src/core/pbuf.c ****   }
1210:../../Middlewares/Third_Party/LwIP/src/core/pbuf.c **** 
1211:../../Middlewares/Third_Party/LwIP/src/core/pbuf.c ****   /* Note some systems use byte copy if dataptr or one of the pbuf payload pointers are unaligned. 
ARM GAS  /tmp/cc8sHRun.s 			page 92


1212:../../Middlewares/Third_Party/LwIP/src/core/pbuf.c ****   for (p = buf; total_copy_len != 0; p = p->next) {
1213:../../Middlewares/Third_Party/LwIP/src/core/pbuf.c ****     LWIP_ASSERT("pbuf_take: invalid pbuf", p != NULL);
 3055              		.loc 1 1213 5 is_stmt 1 discriminator 1 view .LVU915
 3056              		.loc 1 1213 5 discriminator 1 view .LVU916
 3057 0056 134B     		ldr	r3, .L240
 3058 0058 40F2BD42 		movw	r2, #1213
 3059 005c 1649     		ldr	r1, .L240+20
 3060 005e 1348     		ldr	r0, .L240+8
 3061 0060 FFF7FEFF 		bl	printf
 3062              	.LVL310:
 3063 0064 0BE0     		b	.L228
 3064              	.LVL311:
 3065              	.L229:
1214:../../Middlewares/Third_Party/LwIP/src/core/pbuf.c ****     buf_copy_len = total_copy_len;
1215:../../Middlewares/Third_Party/LwIP/src/core/pbuf.c ****     if (buf_copy_len > p->len) {
1216:../../Middlewares/Third_Party/LwIP/src/core/pbuf.c ****       /* this pbuf cannot hold all remaining data */
1217:../../Middlewares/Third_Party/LwIP/src/core/pbuf.c ****       buf_copy_len = p->len;
1218:../../Middlewares/Third_Party/LwIP/src/core/pbuf.c ****     }
1219:../../Middlewares/Third_Party/LwIP/src/core/pbuf.c ****     /* copy the necessary parts of the buffer */
1220:../../Middlewares/Third_Party/LwIP/src/core/pbuf.c ****     MEMCPY(p->payload, &((const char *)dataptr)[copied_total], buf_copy_len);
 3066              		.loc 1 1220 5 view .LVU917
 3067 0066 2246     		mov	r2, r4
 3068 0068 08EB0701 		add	r1, r8, r7
 3069 006c 6868     		ldr	r0, [r5, #4]
 3070 006e FFF7FEFF 		bl	memcpy
 3071              	.LVL312:
1221:../../Middlewares/Third_Party/LwIP/src/core/pbuf.c ****     total_copy_len -= buf_copy_len;
 3072              		.loc 1 1221 5 view .LVU918
 3073              		.loc 1 1221 20 is_stmt 0 view .LVU919
 3074 0072 361B     		subs	r6, r6, r4
 3075              	.LVL313:
1222:../../Middlewares/Third_Party/LwIP/src/core/pbuf.c ****     copied_total += buf_copy_len;
 3076              		.loc 1 1222 5 is_stmt 1 view .LVU920
 3077              		.loc 1 1222 18 is_stmt 0 view .LVU921
 3078 0074 2744     		add	r7, r7, r4
 3079              	.LVL314:
1212:../../Middlewares/Third_Party/LwIP/src/core/pbuf.c ****     LWIP_ASSERT("pbuf_take: invalid pbuf", p != NULL);
 3080              		.loc 1 1212 40 is_stmt 1 discriminator 2 view .LVU922
 3081 0076 2D68     		ldr	r5, [r5]
 3082              	.LVL315:
 3083              	.L227:
1212:../../Middlewares/Third_Party/LwIP/src/core/pbuf.c ****     LWIP_ASSERT("pbuf_take: invalid pbuf", p != NULL);
 3084              		.loc 1 1212 32 discriminator 1 view .LVU923
 3085 0078 36B1     		cbz	r6, .L237
1213:../../Middlewares/Third_Party/LwIP/src/core/pbuf.c ****     buf_copy_len = total_copy_len;
 3086              		.loc 1 1213 5 view .LVU924
1213:../../Middlewares/Third_Party/LwIP/src/core/pbuf.c ****     buf_copy_len = total_copy_len;
 3087              		.loc 1 1213 5 view .LVU925
 3088 007a 002D     		cmp	r5, #0
 3089 007c EBD0     		beq	.L238
 3090              	.L228:
1213:../../Middlewares/Third_Party/LwIP/src/core/pbuf.c ****     buf_copy_len = total_copy_len;
 3091              		.loc 1 1213 5 discriminator 3 view .LVU926
1213:../../Middlewares/Third_Party/LwIP/src/core/pbuf.c ****     buf_copy_len = total_copy_len;
 3092              		.loc 1 1213 5 discriminator 3 view .LVU927
1214:../../Middlewares/Third_Party/LwIP/src/core/pbuf.c ****     if (buf_copy_len > p->len) {
 3093              		.loc 1 1214 5 view .LVU928
ARM GAS  /tmp/cc8sHRun.s 			page 93


 3094              	.LVL316:
1215:../../Middlewares/Third_Party/LwIP/src/core/pbuf.c ****       /* this pbuf cannot hold all remaining data */
 3095              		.loc 1 1215 5 view .LVU929
1215:../../Middlewares/Third_Party/LwIP/src/core/pbuf.c ****       /* this pbuf cannot hold all remaining data */
 3096              		.loc 1 1215 25 is_stmt 0 view .LVU930
 3097 007e 6C89     		ldrh	r4, [r5, #10]
1215:../../Middlewares/Third_Party/LwIP/src/core/pbuf.c ****       /* this pbuf cannot hold all remaining data */
 3098              		.loc 1 1215 8 view .LVU931
 3099 0080 B442     		cmp	r4, r6
 3100 0082 F0D3     		bcc	.L229
1214:../../Middlewares/Third_Party/LwIP/src/core/pbuf.c ****     if (buf_copy_len > p->len) {
 3101              		.loc 1 1214 18 view .LVU932
 3102 0084 3446     		mov	r4, r6
 3103 0086 EEE7     		b	.L229
 3104              	.LVL317:
 3105              	.L237:
1223:../../Middlewares/Third_Party/LwIP/src/core/pbuf.c ****   }
1224:../../Middlewares/Third_Party/LwIP/src/core/pbuf.c ****   LWIP_ASSERT("did not copy all data", total_copy_len == 0 && copied_total == len);
 3106              		.loc 1 1224 3 is_stmt 1 view .LVU933
 3107              		.loc 1 1224 3 view .LVU934
 3108              		.loc 1 1224 3 is_stmt 0 discriminator 2 view .LVU935
 3109 0088 4F45     		cmp	r7, r9
 3110 008a 02D1     		bne	.L239
1225:../../Middlewares/Third_Party/LwIP/src/core/pbuf.c ****   return ERR_OK;
 3111              		.loc 1 1225 10 view .LVU936
 3112 008c 0020     		movs	r0, #0
 3113              	.LVL318:
 3114              	.L225:
1226:../../Middlewares/Third_Party/LwIP/src/core/pbuf.c **** }
 3115              		.loc 1 1226 1 view .LVU937
 3116 008e BDE8F883 		pop	{r3, r4, r5, r6, r7, r8, r9, pc}
 3117              	.LVL319:
 3118              	.L239:
1224:../../Middlewares/Third_Party/LwIP/src/core/pbuf.c ****   return ERR_OK;
 3119              		.loc 1 1224 3 is_stmt 1 discriminator 3 view .LVU938
1224:../../Middlewares/Third_Party/LwIP/src/core/pbuf.c ****   return ERR_OK;
 3120              		.loc 1 1224 3 discriminator 3 view .LVU939
 3121 0092 044B     		ldr	r3, .L240
 3122 0094 4FF49962 		mov	r2, #1224
 3123 0098 0849     		ldr	r1, .L240+24
 3124 009a 0448     		ldr	r0, .L240+8
 3125 009c FFF7FEFF 		bl	printf
 3126              	.LVL320:
1225:../../Middlewares/Third_Party/LwIP/src/core/pbuf.c ****   return ERR_OK;
 3127              		.loc 1 1225 10 is_stmt 0 view .LVU940
 3128 00a0 0020     		movs	r0, #0
 3129 00a2 F4E7     		b	.L225
 3130              	.L241:
 3131              		.align	2
 3132              	.L240:
 3133 00a4 00000000 		.word	.LC0
 3134 00a8 00000000 		.word	.LC30
 3135 00ac 40000000 		.word	.LC2
 3136 00b0 18000000 		.word	.LC31
 3137 00b4 34000000 		.word	.LC32
 3138 00b8 54000000 		.word	.LC33
 3139 00bc 6C000000 		.word	.LC34
ARM GAS  /tmp/cc8sHRun.s 			page 94


 3140              		.cfi_endproc
 3141              	.LFE196:
 3143              		.section	.rodata.pbuf_take_at.str1.4,"aMS",%progbits,1
 3144              		.align	2
 3145              	.LC35:
 3146 0000 63686563 		.ascii	"check pbuf_skip result\000"
 3146      6B207062 
 3146      75665F73 
 3146      6B697020 
 3146      72657375 
 3147              		.section	.text.pbuf_take_at,"ax",%progbits
 3148              		.align	1
 3149              		.global	pbuf_take_at
 3150              		.syntax unified
 3151              		.thumb
 3152              		.thumb_func
 3154              	pbuf_take_at:
 3155              	.LVL321:
 3156              	.LFB197:
1227:../../Middlewares/Third_Party/LwIP/src/core/pbuf.c **** 
1228:../../Middlewares/Third_Party/LwIP/src/core/pbuf.c **** /**
1229:../../Middlewares/Third_Party/LwIP/src/core/pbuf.c ****  * @ingroup pbuf
1230:../../Middlewares/Third_Party/LwIP/src/core/pbuf.c ****  * Same as pbuf_take() but puts data at an offset
1231:../../Middlewares/Third_Party/LwIP/src/core/pbuf.c ****  *
1232:../../Middlewares/Third_Party/LwIP/src/core/pbuf.c ****  * @param buf pbuf to fill with data
1233:../../Middlewares/Third_Party/LwIP/src/core/pbuf.c ****  * @param dataptr application supplied data buffer
1234:../../Middlewares/Third_Party/LwIP/src/core/pbuf.c ****  * @param len length of the application supplied data buffer
1235:../../Middlewares/Third_Party/LwIP/src/core/pbuf.c ****  * @param offset offset in pbuf where to copy dataptr to
1236:../../Middlewares/Third_Party/LwIP/src/core/pbuf.c ****  *
1237:../../Middlewares/Third_Party/LwIP/src/core/pbuf.c ****  * @return ERR_OK if successful, ERR_MEM if the pbuf is not big enough
1238:../../Middlewares/Third_Party/LwIP/src/core/pbuf.c ****  */
1239:../../Middlewares/Third_Party/LwIP/src/core/pbuf.c **** err_t
1240:../../Middlewares/Third_Party/LwIP/src/core/pbuf.c **** pbuf_take_at(struct pbuf *buf, const void *dataptr, u16_t len, u16_t offset)
1241:../../Middlewares/Third_Party/LwIP/src/core/pbuf.c **** {
 3157              		.loc 1 1241 1 is_stmt 1 view -0
 3158              		.cfi_startproc
 3159              		@ args = 0, pretend = 0, frame = 8
 3160              		@ frame_needed = 0, uses_anonymous_args = 0
 3161              		.loc 1 1241 1 is_stmt 0 view .LVU942
 3162 0000 F0B5     		push	{r4, r5, r6, r7, lr}
 3163              	.LCFI38:
 3164              		.cfi_def_cfa_offset 20
 3165              		.cfi_offset 4, -20
 3166              		.cfi_offset 5, -16
 3167              		.cfi_offset 6, -12
 3168              		.cfi_offset 7, -8
 3169              		.cfi_offset 14, -4
 3170 0002 83B0     		sub	sp, sp, #12
 3171              	.LCFI39:
 3172              		.cfi_def_cfa_offset 32
 3173 0004 0E46     		mov	r6, r1
 3174 0006 1446     		mov	r4, r2
1242:../../Middlewares/Third_Party/LwIP/src/core/pbuf.c ****   u16_t target_offset;
 3175              		.loc 1 1242 3 is_stmt 1 view .LVU943
1243:../../Middlewares/Third_Party/LwIP/src/core/pbuf.c ****   struct pbuf *q = pbuf_skip(buf, offset, &target_offset);
 3176              		.loc 1 1243 3 view .LVU944
 3177              		.loc 1 1243 20 is_stmt 0 view .LVU945
ARM GAS  /tmp/cc8sHRun.s 			page 95


 3178 0008 0DF10602 		add	r2, sp, #6
 3179              	.LVL322:
 3180              		.loc 1 1243 20 view .LVU946
 3181 000c 1946     		mov	r1, r3
 3182              	.LVL323:
 3183              		.loc 1 1243 20 view .LVU947
 3184 000e FFF7FEFF 		bl	pbuf_skip
 3185              	.LVL324:
1244:../../Middlewares/Third_Party/LwIP/src/core/pbuf.c **** 
1245:../../Middlewares/Third_Party/LwIP/src/core/pbuf.c ****   /* return requested data if pbuf is OK */
1246:../../Middlewares/Third_Party/LwIP/src/core/pbuf.c ****   if ((q != NULL) && (q->tot_len >= target_offset + len)) {
 3186              		.loc 1 1246 3 is_stmt 1 view .LVU948
 3187              		.loc 1 1246 6 is_stmt 0 view .LVU949
 3188 0012 58B3     		cbz	r0, .L246
 3189 0014 0746     		mov	r7, r0
 3190              		.loc 1 1246 24 discriminator 1 view .LVU950
 3191 0016 0189     		ldrh	r1, [r0, #8]
 3192              		.loc 1 1246 51 discriminator 1 view .LVU951
 3193 0018 BDF80630 		ldrh	r3, [sp, #6]
 3194 001c 1A19     		adds	r2, r3, r4
 3195              		.loc 1 1246 19 discriminator 1 view .LVU952
 3196 001e 9142     		cmp	r1, r2
 3197 0020 27DB     		blt	.L247
 3198              	.LBB13:
1247:../../Middlewares/Third_Party/LwIP/src/core/pbuf.c ****     u16_t remaining_len = len;
 3199              		.loc 1 1247 5 is_stmt 1 view .LVU953
 3200              	.LVL325:
1248:../../Middlewares/Third_Party/LwIP/src/core/pbuf.c ****     const u8_t *src_ptr = (const u8_t *)dataptr;
 3201              		.loc 1 1248 5 view .LVU954
1249:../../Middlewares/Third_Party/LwIP/src/core/pbuf.c ****     /* copy the part that goes into the first pbuf */
1250:../../Middlewares/Third_Party/LwIP/src/core/pbuf.c ****     u16_t first_copy_len;
 3202              		.loc 1 1250 5 view .LVU955
1251:../../Middlewares/Third_Party/LwIP/src/core/pbuf.c ****     LWIP_ASSERT("check pbuf_skip result", target_offset < q->len);
 3203              		.loc 1 1251 5 view .LVU956
 3204              		.loc 1 1251 5 view .LVU957
 3205 0022 4289     		ldrh	r2, [r0, #10]
 3206 0024 9342     		cmp	r3, r2
 3207 0026 13D2     		bcs	.L251
 3208              	.LVL326:
 3209              	.L244:
 3210              		.loc 1 1251 5 discriminator 3 view .LVU958
 3211              		.loc 1 1251 5 discriminator 3 view .LVU959
1252:../../Middlewares/Third_Party/LwIP/src/core/pbuf.c ****     first_copy_len = (u16_t)LWIP_MIN(q->len - target_offset, len);
 3212              		.loc 1 1252 5 view .LVU960
 3213              		.loc 1 1252 29 is_stmt 0 view .LVU961
 3214 0028 7D89     		ldrh	r5, [r7, #10]
 3215 002a BDF80630 		ldrh	r3, [sp, #6]
 3216 002e EA1A     		subs	r2, r5, r3
 3217              		.loc 1 1252 22 view .LVU962
 3218 0030 9442     		cmp	r4, r2
 3219 0032 15DD     		ble	.L248
 3220              		.loc 1 1252 22 discriminator 1 view .LVU963
 3221 0034 95B2     		uxth	r5, r2
 3222              	.L245:
 3223              	.LVL327:
1253:../../Middlewares/Third_Party/LwIP/src/core/pbuf.c ****     MEMCPY(((u8_t *)q->payload) + target_offset, dataptr, first_copy_len);
 3224              		.loc 1 1253 5 is_stmt 1 view .LVU964
ARM GAS  /tmp/cc8sHRun.s 			page 96


 3225 0036 7868     		ldr	r0, [r7, #4]
 3226 0038 2A46     		mov	r2, r5
 3227 003a 3146     		mov	r1, r6
 3228 003c 1844     		add	r0, r0, r3
 3229 003e FFF7FEFF 		bl	memcpy
 3230              	.LVL328:
1254:../../Middlewares/Third_Party/LwIP/src/core/pbuf.c ****     remaining_len = (u16_t)(remaining_len - first_copy_len);
 3231              		.loc 1 1254 5 view .LVU965
 3232              		.loc 1 1254 19 is_stmt 0 view .LVU966
 3233 0042 621B     		subs	r2, r4, r5
 3234 0044 92B2     		uxth	r2, r2
 3235              	.LVL329:
1255:../../Middlewares/Third_Party/LwIP/src/core/pbuf.c ****     src_ptr += first_copy_len;
 3236              		.loc 1 1255 5 is_stmt 1 view .LVU967
 3237              		.loc 1 1255 13 is_stmt 0 view .LVU968
 3238 0046 7119     		adds	r1, r6, r5
 3239              	.LVL330:
1256:../../Middlewares/Third_Party/LwIP/src/core/pbuf.c ****     if (remaining_len > 0) {
 3240              		.loc 1 1256 5 is_stmt 1 view .LVU969
 3241              		.loc 1 1256 8 is_stmt 0 view .LVU970
 3242 0048 62B9     		cbnz	r2, .L252
1257:../../Middlewares/Third_Party/LwIP/src/core/pbuf.c ****       return pbuf_take(q->next, src_ptr, remaining_len);
1258:../../Middlewares/Third_Party/LwIP/src/core/pbuf.c ****     }
1259:../../Middlewares/Third_Party/LwIP/src/core/pbuf.c ****     return ERR_OK;
 3243              		.loc 1 1259 12 view .LVU971
 3244 004a 0020     		movs	r0, #0
 3245              	.LVL331:
 3246              	.L243:
 3247              		.loc 1 1259 12 view .LVU972
 3248              	.LBE13:
1260:../../Middlewares/Third_Party/LwIP/src/core/pbuf.c ****   }
1261:../../Middlewares/Third_Party/LwIP/src/core/pbuf.c ****   return ERR_MEM;
1262:../../Middlewares/Third_Party/LwIP/src/core/pbuf.c **** }
 3249              		.loc 1 1262 1 view .LVU973
 3250 004c 03B0     		add	sp, sp, #12
 3251              	.LCFI40:
 3252              		.cfi_remember_state
 3253              		.cfi_def_cfa_offset 20
 3254              		@ sp needed
 3255 004e F0BD     		pop	{r4, r5, r6, r7, pc}
 3256              	.LVL332:
 3257              	.L251:
 3258              	.LCFI41:
 3259              		.cfi_restore_state
 3260              	.LBB14:
1251:../../Middlewares/Third_Party/LwIP/src/core/pbuf.c ****     first_copy_len = (u16_t)LWIP_MIN(q->len - target_offset, len);
 3261              		.loc 1 1251 5 is_stmt 1 discriminator 1 view .LVU974
1251:../../Middlewares/Third_Party/LwIP/src/core/pbuf.c ****     first_copy_len = (u16_t)LWIP_MIN(q->len - target_offset, len);
 3262              		.loc 1 1251 5 discriminator 1 view .LVU975
 3263 0050 094B     		ldr	r3, .L253
 3264 0052 40F2E342 		movw	r2, #1251
 3265 0056 0949     		ldr	r1, .L253+4
 3266 0058 0948     		ldr	r0, .L253+8
 3267              	.LVL333:
1251:../../Middlewares/Third_Party/LwIP/src/core/pbuf.c ****     first_copy_len = (u16_t)LWIP_MIN(q->len - target_offset, len);
 3268              		.loc 1 1251 5 is_stmt 0 discriminator 1 view .LVU976
 3269 005a FFF7FEFF 		bl	printf
ARM GAS  /tmp/cc8sHRun.s 			page 97


 3270              	.LVL334:
 3271 005e E3E7     		b	.L244
 3272              	.L248:
1252:../../Middlewares/Third_Party/LwIP/src/core/pbuf.c ****     MEMCPY(((u8_t *)q->payload) + target_offset, dataptr, first_copy_len);
 3273              		.loc 1 1252 22 discriminator 2 view .LVU977
 3274 0060 2546     		mov	r5, r4
 3275 0062 E8E7     		b	.L245
 3276              	.LVL335:
 3277              	.L252:
1257:../../Middlewares/Third_Party/LwIP/src/core/pbuf.c ****     }
 3278              		.loc 1 1257 7 is_stmt 1 view .LVU978
1257:../../Middlewares/Third_Party/LwIP/src/core/pbuf.c ****     }
 3279              		.loc 1 1257 14 is_stmt 0 view .LVU979
 3280 0064 3868     		ldr	r0, [r7]
 3281 0066 FFF7FEFF 		bl	pbuf_take
 3282              	.LVL336:
1257:../../Middlewares/Third_Party/LwIP/src/core/pbuf.c ****     }
 3283              		.loc 1 1257 14 view .LVU980
 3284 006a EFE7     		b	.L243
 3285              	.LVL337:
 3286              	.L246:
1257:../../Middlewares/Third_Party/LwIP/src/core/pbuf.c ****     }
 3287              		.loc 1 1257 14 view .LVU981
 3288              	.LBE14:
1261:../../Middlewares/Third_Party/LwIP/src/core/pbuf.c **** }
 3289              		.loc 1 1261 10 view .LVU982
 3290 006c 4FF0FF30 		mov	r0, #-1
 3291              	.LVL338:
1261:../../Middlewares/Third_Party/LwIP/src/core/pbuf.c **** }
 3292              		.loc 1 1261 10 view .LVU983
 3293 0070 ECE7     		b	.L243
 3294              	.LVL339:
 3295              	.L247:
1261:../../Middlewares/Third_Party/LwIP/src/core/pbuf.c **** }
 3296              		.loc 1 1261 10 view .LVU984
 3297 0072 4FF0FF30 		mov	r0, #-1
 3298              	.LVL340:
1261:../../Middlewares/Third_Party/LwIP/src/core/pbuf.c **** }
 3299              		.loc 1 1261 10 view .LVU985
 3300 0076 E9E7     		b	.L243
 3301              	.L254:
 3302              		.align	2
 3303              	.L253:
 3304 0078 00000000 		.word	.LC0
 3305 007c 00000000 		.word	.LC35
 3306 0080 40000000 		.word	.LC2
 3307              		.cfi_endproc
 3308              	.LFE197:
 3310              		.section	.rodata.pbuf_clone.str1.4,"aMS",%progbits,1
 3311              		.align	2
 3312              	.LC36:
 3313 0000 70627566 		.ascii	"pbuf_copy failed\000"
 3313      5F636F70 
 3313      79206661 
 3313      696C6564 
 3313      00
 3314              		.section	.text.pbuf_clone,"ax",%progbits
ARM GAS  /tmp/cc8sHRun.s 			page 98


 3315              		.align	1
 3316              		.global	pbuf_clone
 3317              		.syntax unified
 3318              		.thumb
 3319              		.thumb_func
 3321              	pbuf_clone:
 3322              	.LVL341:
 3323              	.LFB199:
1263:../../Middlewares/Third_Party/LwIP/src/core/pbuf.c **** 
1264:../../Middlewares/Third_Party/LwIP/src/core/pbuf.c **** /**
1265:../../Middlewares/Third_Party/LwIP/src/core/pbuf.c ****  * @ingroup pbuf
1266:../../Middlewares/Third_Party/LwIP/src/core/pbuf.c ****  * Creates a single pbuf out of a queue of pbufs.
1267:../../Middlewares/Third_Party/LwIP/src/core/pbuf.c ****  *
1268:../../Middlewares/Third_Party/LwIP/src/core/pbuf.c ****  * @remark: Either the source pbuf 'p' is freed by this function or the original
1269:../../Middlewares/Third_Party/LwIP/src/core/pbuf.c ****  *          pbuf 'p' is returned, therefore the caller has to check the result!
1270:../../Middlewares/Third_Party/LwIP/src/core/pbuf.c ****  *
1271:../../Middlewares/Third_Party/LwIP/src/core/pbuf.c ****  * @param p the source pbuf
1272:../../Middlewares/Third_Party/LwIP/src/core/pbuf.c ****  * @param layer pbuf_layer of the new pbuf
1273:../../Middlewares/Third_Party/LwIP/src/core/pbuf.c ****  *
1274:../../Middlewares/Third_Party/LwIP/src/core/pbuf.c ****  * @return a new, single pbuf (p->next is NULL)
1275:../../Middlewares/Third_Party/LwIP/src/core/pbuf.c ****  *         or the old pbuf if allocation fails
1276:../../Middlewares/Third_Party/LwIP/src/core/pbuf.c ****  */
1277:../../Middlewares/Third_Party/LwIP/src/core/pbuf.c **** struct pbuf *
1278:../../Middlewares/Third_Party/LwIP/src/core/pbuf.c **** pbuf_coalesce(struct pbuf *p, pbuf_layer layer)
1279:../../Middlewares/Third_Party/LwIP/src/core/pbuf.c **** {
1280:../../Middlewares/Third_Party/LwIP/src/core/pbuf.c ****   struct pbuf *q;
1281:../../Middlewares/Third_Party/LwIP/src/core/pbuf.c ****   if (p->next == NULL) {
1282:../../Middlewares/Third_Party/LwIP/src/core/pbuf.c ****     return p;
1283:../../Middlewares/Third_Party/LwIP/src/core/pbuf.c ****   }
1284:../../Middlewares/Third_Party/LwIP/src/core/pbuf.c ****   q = pbuf_clone(layer, PBUF_RAM, p);
1285:../../Middlewares/Third_Party/LwIP/src/core/pbuf.c ****   if (q == NULL) {
1286:../../Middlewares/Third_Party/LwIP/src/core/pbuf.c ****     /* @todo: what do we do now? */
1287:../../Middlewares/Third_Party/LwIP/src/core/pbuf.c ****     return p;
1288:../../Middlewares/Third_Party/LwIP/src/core/pbuf.c ****   }
1289:../../Middlewares/Third_Party/LwIP/src/core/pbuf.c ****   pbuf_free(p);
1290:../../Middlewares/Third_Party/LwIP/src/core/pbuf.c ****   return q;
1291:../../Middlewares/Third_Party/LwIP/src/core/pbuf.c **** }
1292:../../Middlewares/Third_Party/LwIP/src/core/pbuf.c **** 
1293:../../Middlewares/Third_Party/LwIP/src/core/pbuf.c **** /**
1294:../../Middlewares/Third_Party/LwIP/src/core/pbuf.c ****  * @ingroup pbuf
1295:../../Middlewares/Third_Party/LwIP/src/core/pbuf.c ****  * Allocates a new pbuf of same length (via pbuf_alloc()) and copies the source
1296:../../Middlewares/Third_Party/LwIP/src/core/pbuf.c ****  * pbuf into this new pbuf (using pbuf_copy()).
1297:../../Middlewares/Third_Party/LwIP/src/core/pbuf.c ****  *
1298:../../Middlewares/Third_Party/LwIP/src/core/pbuf.c ****  * @param layer pbuf_layer of the new pbuf
1299:../../Middlewares/Third_Party/LwIP/src/core/pbuf.c ****  * @param type this parameter decides how and where the pbuf should be allocated
1300:../../Middlewares/Third_Party/LwIP/src/core/pbuf.c ****  *             (@see pbuf_alloc())
1301:../../Middlewares/Third_Party/LwIP/src/core/pbuf.c ****  * @param p the source pbuf
1302:../../Middlewares/Third_Party/LwIP/src/core/pbuf.c ****  *
1303:../../Middlewares/Third_Party/LwIP/src/core/pbuf.c ****  * @return a new pbuf or NULL if allocation fails
1304:../../Middlewares/Third_Party/LwIP/src/core/pbuf.c ****  */
1305:../../Middlewares/Third_Party/LwIP/src/core/pbuf.c **** struct pbuf *
1306:../../Middlewares/Third_Party/LwIP/src/core/pbuf.c **** pbuf_clone(pbuf_layer layer, pbuf_type type, struct pbuf *p)
1307:../../Middlewares/Third_Party/LwIP/src/core/pbuf.c **** {
 3324              		.loc 1 1307 1 is_stmt 1 view -0
 3325              		.cfi_startproc
 3326              		@ args = 0, pretend = 0, frame = 0
 3327              		@ frame_needed = 0, uses_anonymous_args = 0
ARM GAS  /tmp/cc8sHRun.s 			page 99


 3328              		.loc 1 1307 1 is_stmt 0 view .LVU987
 3329 0000 38B5     		push	{r3, r4, r5, lr}
 3330              	.LCFI42:
 3331              		.cfi_def_cfa_offset 16
 3332              		.cfi_offset 3, -16
 3333              		.cfi_offset 4, -12
 3334              		.cfi_offset 5, -8
 3335              		.cfi_offset 14, -4
 3336 0002 1446     		mov	r4, r2
1308:../../Middlewares/Third_Party/LwIP/src/core/pbuf.c ****   struct pbuf *q;
 3337              		.loc 1 1308 3 is_stmt 1 view .LVU988
1309:../../Middlewares/Third_Party/LwIP/src/core/pbuf.c ****   err_t err;
 3338              		.loc 1 1309 3 view .LVU989
1310:../../Middlewares/Third_Party/LwIP/src/core/pbuf.c ****   q = pbuf_alloc(layer, p->tot_len, type);
 3339              		.loc 1 1310 3 view .LVU990
 3340              		.loc 1 1310 7 is_stmt 0 view .LVU991
 3341 0004 0A46     		mov	r2, r1
 3342              	.LVL342:
 3343              		.loc 1 1310 7 view .LVU992
 3344 0006 2189     		ldrh	r1, [r4, #8]
 3345              	.LVL343:
 3346              		.loc 1 1310 7 view .LVU993
 3347 0008 FFF7FEFF 		bl	pbuf_alloc
 3348              	.LVL344:
1311:../../Middlewares/Third_Party/LwIP/src/core/pbuf.c ****   if (q == NULL) {
 3349              		.loc 1 1311 3 is_stmt 1 view .LVU994
 3350              		.loc 1 1311 6 is_stmt 0 view .LVU995
 3351 000c 0546     		mov	r5, r0
 3352 000e 18B1     		cbz	r0, .L255
1312:../../Middlewares/Third_Party/LwIP/src/core/pbuf.c ****     return NULL;
1313:../../Middlewares/Third_Party/LwIP/src/core/pbuf.c ****   }
1314:../../Middlewares/Third_Party/LwIP/src/core/pbuf.c ****   err = pbuf_copy(q, p);
 3353              		.loc 1 1314 3 is_stmt 1 view .LVU996
 3354              		.loc 1 1314 9 is_stmt 0 view .LVU997
 3355 0010 2146     		mov	r1, r4
 3356 0012 FFF7FEFF 		bl	pbuf_copy
 3357              	.LVL345:
1315:../../Middlewares/Third_Party/LwIP/src/core/pbuf.c ****   LWIP_UNUSED_ARG(err); /* in case of LWIP_NOASSERT */
 3358              		.loc 1 1315 3 is_stmt 1 view .LVU998
1316:../../Middlewares/Third_Party/LwIP/src/core/pbuf.c ****   LWIP_ASSERT("pbuf_copy failed", err == ERR_OK);
 3359              		.loc 1 1316 3 view .LVU999
 3360              		.loc 1 1316 3 view .LVU1000
 3361 0016 08B9     		cbnz	r0, .L258
 3362              	.LVL346:
 3363              	.L255:
1317:../../Middlewares/Third_Party/LwIP/src/core/pbuf.c ****   return q;
1318:../../Middlewares/Third_Party/LwIP/src/core/pbuf.c **** }
 3364              		.loc 1 1318 1 is_stmt 0 view .LVU1001
 3365 0018 2846     		mov	r0, r5
 3366 001a 38BD     		pop	{r3, r4, r5, pc}
 3367              	.LVL347:
 3368              	.L258:
1316:../../Middlewares/Third_Party/LwIP/src/core/pbuf.c ****   LWIP_ASSERT("pbuf_copy failed", err == ERR_OK);
 3369              		.loc 1 1316 3 is_stmt 1 discriminator 1 view .LVU1002
1316:../../Middlewares/Third_Party/LwIP/src/core/pbuf.c ****   LWIP_ASSERT("pbuf_copy failed", err == ERR_OK);
 3370              		.loc 1 1316 3 discriminator 1 view .LVU1003
 3371 001c 034B     		ldr	r3, .L259
ARM GAS  /tmp/cc8sHRun.s 			page 100


 3372 001e 40F22452 		movw	r2, #1316
 3373 0022 0349     		ldr	r1, .L259+4
 3374 0024 0348     		ldr	r0, .L259+8
 3375              	.LVL348:
1316:../../Middlewares/Third_Party/LwIP/src/core/pbuf.c ****   LWIP_ASSERT("pbuf_copy failed", err == ERR_OK);
 3376              		.loc 1 1316 3 is_stmt 0 discriminator 1 view .LVU1004
 3377 0026 FFF7FEFF 		bl	printf
 3378              	.LVL349:
 3379 002a F5E7     		b	.L255
 3380              	.L260:
 3381              		.align	2
 3382              	.L259:
 3383 002c 00000000 		.word	.LC0
 3384 0030 00000000 		.word	.LC36
 3385 0034 40000000 		.word	.LC2
 3386              		.cfi_endproc
 3387              	.LFE199:
 3389              		.section	.text.pbuf_coalesce,"ax",%progbits
 3390              		.align	1
 3391              		.global	pbuf_coalesce
 3392              		.syntax unified
 3393              		.thumb
 3394              		.thumb_func
 3396              	pbuf_coalesce:
 3397              	.LVL350:
 3398              	.LFB198:
1279:../../Middlewares/Third_Party/LwIP/src/core/pbuf.c ****   struct pbuf *q;
 3399              		.loc 1 1279 1 is_stmt 1 view -0
 3400              		.cfi_startproc
 3401              		@ args = 0, pretend = 0, frame = 0
 3402              		@ frame_needed = 0, uses_anonymous_args = 0
1279:../../Middlewares/Third_Party/LwIP/src/core/pbuf.c ****   struct pbuf *q;
 3403              		.loc 1 1279 1 is_stmt 0 view .LVU1006
 3404 0000 38B5     		push	{r3, r4, r5, lr}
 3405              	.LCFI43:
 3406              		.cfi_def_cfa_offset 16
 3407              		.cfi_offset 3, -16
 3408              		.cfi_offset 4, -12
 3409              		.cfi_offset 5, -8
 3410              		.cfi_offset 14, -4
 3411 0002 0446     		mov	r4, r0
1280:../../Middlewares/Third_Party/LwIP/src/core/pbuf.c ****   if (p->next == NULL) {
 3412              		.loc 1 1280 3 is_stmt 1 view .LVU1007
1281:../../Middlewares/Third_Party/LwIP/src/core/pbuf.c ****     return p;
 3413              		.loc 1 1281 3 view .LVU1008
1281:../../Middlewares/Third_Party/LwIP/src/core/pbuf.c ****     return p;
 3414              		.loc 1 1281 8 is_stmt 0 view .LVU1009
 3415 0004 0368     		ldr	r3, [r0]
1281:../../Middlewares/Third_Party/LwIP/src/core/pbuf.c ****     return p;
 3416              		.loc 1 1281 6 view .LVU1010
 3417 0006 5BB1     		cbz	r3, .L262
 3418 0008 0846     		mov	r0, r1
 3419              	.LVL351:
1284:../../Middlewares/Third_Party/LwIP/src/core/pbuf.c ****   if (q == NULL) {
 3420              		.loc 1 1284 3 is_stmt 1 view .LVU1011
1284:../../Middlewares/Third_Party/LwIP/src/core/pbuf.c ****   if (q == NULL) {
 3421              		.loc 1 1284 7 is_stmt 0 view .LVU1012
ARM GAS  /tmp/cc8sHRun.s 			page 101


 3422 000a 2246     		mov	r2, r4
 3423 000c 4FF42071 		mov	r1, #640
 3424              	.LVL352:
1284:../../Middlewares/Third_Party/LwIP/src/core/pbuf.c ****   if (q == NULL) {
 3425              		.loc 1 1284 7 view .LVU1013
 3426 0010 FFF7FEFF 		bl	pbuf_clone
 3427              	.LVL353:
1285:../../Middlewares/Third_Party/LwIP/src/core/pbuf.c ****     /* @todo: what do we do now? */
 3428              		.loc 1 1285 3 is_stmt 1 view .LVU1014
1285:../../Middlewares/Third_Party/LwIP/src/core/pbuf.c ****     /* @todo: what do we do now? */
 3429              		.loc 1 1285 6 is_stmt 0 view .LVU1015
 3430 0014 0546     		mov	r5, r0
 3431 0016 18B1     		cbz	r0, .L262
1289:../../Middlewares/Third_Party/LwIP/src/core/pbuf.c ****   return q;
 3432              		.loc 1 1289 3 is_stmt 1 view .LVU1016
 3433 0018 2046     		mov	r0, r4
 3434              	.LVL354:
1289:../../Middlewares/Third_Party/LwIP/src/core/pbuf.c ****   return q;
 3435              		.loc 1 1289 3 is_stmt 0 view .LVU1017
 3436 001a FFF7FEFF 		bl	pbuf_free
 3437              	.LVL355:
1290:../../Middlewares/Third_Party/LwIP/src/core/pbuf.c **** }
 3438              		.loc 1 1290 3 is_stmt 1 view .LVU1018
1290:../../Middlewares/Third_Party/LwIP/src/core/pbuf.c **** }
 3439              		.loc 1 1290 10 is_stmt 0 view .LVU1019
 3440 001e 2C46     		mov	r4, r5
 3441              	.LVL356:
 3442              	.L262:
1291:../../Middlewares/Third_Party/LwIP/src/core/pbuf.c **** 
 3443              		.loc 1 1291 1 view .LVU1020
 3444 0020 2046     		mov	r0, r4
 3445 0022 38BD     		pop	{r3, r4, r5, pc}
 3446              		.cfi_endproc
 3447              	.LFE198:
 3449              		.section	.text.pbuf_try_get_at,"ax",%progbits
 3450              		.align	1
 3451              		.global	pbuf_try_get_at
 3452              		.syntax unified
 3453              		.thumb
 3454              		.thumb_func
 3456              	pbuf_try_get_at:
 3457              	.LVL357:
 3458              	.LFB201:
1319:../../Middlewares/Third_Party/LwIP/src/core/pbuf.c **** 
1320:../../Middlewares/Third_Party/LwIP/src/core/pbuf.c **** #if LWIP_CHECKSUM_ON_COPY
1321:../../Middlewares/Third_Party/LwIP/src/core/pbuf.c **** /**
1322:../../Middlewares/Third_Party/LwIP/src/core/pbuf.c ****  * Copies data into a single pbuf (*not* into a pbuf queue!) and updates
1323:../../Middlewares/Third_Party/LwIP/src/core/pbuf.c ****  * the checksum while copying
1324:../../Middlewares/Third_Party/LwIP/src/core/pbuf.c ****  *
1325:../../Middlewares/Third_Party/LwIP/src/core/pbuf.c ****  * @param p the pbuf to copy data into
1326:../../Middlewares/Third_Party/LwIP/src/core/pbuf.c ****  * @param start_offset offset of p->payload where to copy the data to
1327:../../Middlewares/Third_Party/LwIP/src/core/pbuf.c ****  * @param dataptr data to copy into the pbuf
1328:../../Middlewares/Third_Party/LwIP/src/core/pbuf.c ****  * @param len length of data to copy into the pbuf
1329:../../Middlewares/Third_Party/LwIP/src/core/pbuf.c ****  * @param chksum pointer to the checksum which is updated
1330:../../Middlewares/Third_Party/LwIP/src/core/pbuf.c ****  * @return ERR_OK if successful, another error if the data does not fit
1331:../../Middlewares/Third_Party/LwIP/src/core/pbuf.c ****  *         within the (first) pbuf (no pbuf queues!)
1332:../../Middlewares/Third_Party/LwIP/src/core/pbuf.c ****  */
ARM GAS  /tmp/cc8sHRun.s 			page 102


1333:../../Middlewares/Third_Party/LwIP/src/core/pbuf.c **** err_t
1334:../../Middlewares/Third_Party/LwIP/src/core/pbuf.c **** pbuf_fill_chksum(struct pbuf *p, u16_t start_offset, const void *dataptr,
1335:../../Middlewares/Third_Party/LwIP/src/core/pbuf.c ****                  u16_t len, u16_t *chksum)
1336:../../Middlewares/Third_Party/LwIP/src/core/pbuf.c **** {
1337:../../Middlewares/Third_Party/LwIP/src/core/pbuf.c ****   u32_t acc;
1338:../../Middlewares/Third_Party/LwIP/src/core/pbuf.c ****   u16_t copy_chksum;
1339:../../Middlewares/Third_Party/LwIP/src/core/pbuf.c ****   char *dst_ptr;
1340:../../Middlewares/Third_Party/LwIP/src/core/pbuf.c ****   LWIP_ASSERT("p != NULL", p != NULL);
1341:../../Middlewares/Third_Party/LwIP/src/core/pbuf.c ****   LWIP_ASSERT("dataptr != NULL", dataptr != NULL);
1342:../../Middlewares/Third_Party/LwIP/src/core/pbuf.c ****   LWIP_ASSERT("chksum != NULL", chksum != NULL);
1343:../../Middlewares/Third_Party/LwIP/src/core/pbuf.c ****   LWIP_ASSERT("len != 0", len != 0);
1344:../../Middlewares/Third_Party/LwIP/src/core/pbuf.c **** 
1345:../../Middlewares/Third_Party/LwIP/src/core/pbuf.c ****   if ((start_offset >= p->len) || (start_offset + len > p->len)) {
1346:../../Middlewares/Third_Party/LwIP/src/core/pbuf.c ****     return ERR_ARG;
1347:../../Middlewares/Third_Party/LwIP/src/core/pbuf.c ****   }
1348:../../Middlewares/Third_Party/LwIP/src/core/pbuf.c **** 
1349:../../Middlewares/Third_Party/LwIP/src/core/pbuf.c ****   dst_ptr = ((char *)p->payload) + start_offset;
1350:../../Middlewares/Third_Party/LwIP/src/core/pbuf.c ****   copy_chksum = LWIP_CHKSUM_COPY(dst_ptr, dataptr, len);
1351:../../Middlewares/Third_Party/LwIP/src/core/pbuf.c ****   if ((start_offset & 1) != 0) {
1352:../../Middlewares/Third_Party/LwIP/src/core/pbuf.c ****     copy_chksum = SWAP_BYTES_IN_WORD(copy_chksum);
1353:../../Middlewares/Third_Party/LwIP/src/core/pbuf.c ****   }
1354:../../Middlewares/Third_Party/LwIP/src/core/pbuf.c ****   acc = *chksum;
1355:../../Middlewares/Third_Party/LwIP/src/core/pbuf.c ****   acc += copy_chksum;
1356:../../Middlewares/Third_Party/LwIP/src/core/pbuf.c ****   *chksum = FOLD_U32T(acc);
1357:../../Middlewares/Third_Party/LwIP/src/core/pbuf.c ****   return ERR_OK;
1358:../../Middlewares/Third_Party/LwIP/src/core/pbuf.c **** }
1359:../../Middlewares/Third_Party/LwIP/src/core/pbuf.c **** #endif /* LWIP_CHECKSUM_ON_COPY */
1360:../../Middlewares/Third_Party/LwIP/src/core/pbuf.c **** 
1361:../../Middlewares/Third_Party/LwIP/src/core/pbuf.c **** /**
1362:../../Middlewares/Third_Party/LwIP/src/core/pbuf.c ****  * @ingroup pbuf
1363:../../Middlewares/Third_Party/LwIP/src/core/pbuf.c ****  * Get one byte from the specified position in a pbuf
1364:../../Middlewares/Third_Party/LwIP/src/core/pbuf.c ****  * WARNING: returns zero for offset >= p->tot_len
1365:../../Middlewares/Third_Party/LwIP/src/core/pbuf.c ****  *
1366:../../Middlewares/Third_Party/LwIP/src/core/pbuf.c ****  * @param p pbuf to parse
1367:../../Middlewares/Third_Party/LwIP/src/core/pbuf.c ****  * @param offset offset into p of the byte to return
1368:../../Middlewares/Third_Party/LwIP/src/core/pbuf.c ****  * @return byte at an offset into p OR ZERO IF 'offset' >= p->tot_len
1369:../../Middlewares/Third_Party/LwIP/src/core/pbuf.c ****  */
1370:../../Middlewares/Third_Party/LwIP/src/core/pbuf.c **** u8_t
1371:../../Middlewares/Third_Party/LwIP/src/core/pbuf.c **** pbuf_get_at(const struct pbuf *p, u16_t offset)
1372:../../Middlewares/Third_Party/LwIP/src/core/pbuf.c **** {
1373:../../Middlewares/Third_Party/LwIP/src/core/pbuf.c ****   int ret = pbuf_try_get_at(p, offset);
1374:../../Middlewares/Third_Party/LwIP/src/core/pbuf.c ****   if (ret >= 0) {
1375:../../Middlewares/Third_Party/LwIP/src/core/pbuf.c ****     return (u8_t)ret;
1376:../../Middlewares/Third_Party/LwIP/src/core/pbuf.c ****   }
1377:../../Middlewares/Third_Party/LwIP/src/core/pbuf.c ****   return 0;
1378:../../Middlewares/Third_Party/LwIP/src/core/pbuf.c **** }
1379:../../Middlewares/Third_Party/LwIP/src/core/pbuf.c **** 
1380:../../Middlewares/Third_Party/LwIP/src/core/pbuf.c **** /**
1381:../../Middlewares/Third_Party/LwIP/src/core/pbuf.c ****  * @ingroup pbuf
1382:../../Middlewares/Third_Party/LwIP/src/core/pbuf.c ****  * Get one byte from the specified position in a pbuf
1383:../../Middlewares/Third_Party/LwIP/src/core/pbuf.c ****  *
1384:../../Middlewares/Third_Party/LwIP/src/core/pbuf.c ****  * @param p pbuf to parse
1385:../../Middlewares/Third_Party/LwIP/src/core/pbuf.c ****  * @param offset offset into p of the byte to return
1386:../../Middlewares/Third_Party/LwIP/src/core/pbuf.c ****  * @return byte at an offset into p [0..0xFF] OR negative if 'offset' >= p->tot_len
1387:../../Middlewares/Third_Party/LwIP/src/core/pbuf.c ****  */
1388:../../Middlewares/Third_Party/LwIP/src/core/pbuf.c **** int
1389:../../Middlewares/Third_Party/LwIP/src/core/pbuf.c **** pbuf_try_get_at(const struct pbuf *p, u16_t offset)
ARM GAS  /tmp/cc8sHRun.s 			page 103


1390:../../Middlewares/Third_Party/LwIP/src/core/pbuf.c **** {
 3459              		.loc 1 1390 1 is_stmt 1 view -0
 3460              		.cfi_startproc
 3461              		@ args = 0, pretend = 0, frame = 8
 3462              		@ frame_needed = 0, uses_anonymous_args = 0
 3463              		.loc 1 1390 1 is_stmt 0 view .LVU1022
 3464 0000 00B5     		push	{lr}
 3465              	.LCFI44:
 3466              		.cfi_def_cfa_offset 4
 3467              		.cfi_offset 14, -4
 3468 0002 83B0     		sub	sp, sp, #12
 3469              	.LCFI45:
 3470              		.cfi_def_cfa_offset 16
1391:../../Middlewares/Third_Party/LwIP/src/core/pbuf.c ****   u16_t q_idx;
 3471              		.loc 1 1391 3 is_stmt 1 view .LVU1023
1392:../../Middlewares/Third_Party/LwIP/src/core/pbuf.c ****   const struct pbuf *q = pbuf_skip_const(p, offset, &q_idx);
 3472              		.loc 1 1392 3 view .LVU1024
 3473              		.loc 1 1392 26 is_stmt 0 view .LVU1025
 3474 0004 0DF10602 		add	r2, sp, #6
 3475 0008 FFF7FEFF 		bl	pbuf_skip_const
 3476              	.LVL358:
1393:../../Middlewares/Third_Party/LwIP/src/core/pbuf.c **** 
1394:../../Middlewares/Third_Party/LwIP/src/core/pbuf.c ****   /* return requested data if pbuf is OK */
1395:../../Middlewares/Third_Party/LwIP/src/core/pbuf.c ****   if ((q != NULL) && (q->len > q_idx)) {
 3477              		.loc 1 1395 3 is_stmt 1 view .LVU1026
 3478              		.loc 1 1395 6 is_stmt 0 view .LVU1027
 3479 000c 48B1     		cbz	r0, .L266
 3480              		.loc 1 1395 24 discriminator 1 view .LVU1028
 3481 000e 4189     		ldrh	r1, [r0, #10]
 3482              		.loc 1 1395 30 discriminator 1 view .LVU1029
 3483 0010 BDF80620 		ldrh	r2, [sp, #6]
 3484              		.loc 1 1395 19 discriminator 1 view .LVU1030
 3485 0014 9142     		cmp	r1, r2
 3486 0016 07D9     		bls	.L267
1396:../../Middlewares/Third_Party/LwIP/src/core/pbuf.c ****     return ((u8_t *)q->payload)[q_idx];
 3487              		.loc 1 1396 5 is_stmt 1 view .LVU1031
 3488              		.loc 1 1396 22 is_stmt 0 view .LVU1032
 3489 0018 4368     		ldr	r3, [r0, #4]
 3490              		.loc 1 1396 32 view .LVU1033
 3491 001a 985C     		ldrb	r0, [r3, r2]	@ zero_extendqisi2
 3492              	.LVL359:
 3493              	.L264:
1397:../../Middlewares/Third_Party/LwIP/src/core/pbuf.c ****   }
1398:../../Middlewares/Third_Party/LwIP/src/core/pbuf.c ****   return -1;
1399:../../Middlewares/Third_Party/LwIP/src/core/pbuf.c **** }
 3494              		.loc 1 1399 1 view .LVU1034
 3495 001c 03B0     		add	sp, sp, #12
 3496              	.LCFI46:
 3497              		.cfi_remember_state
 3498              		.cfi_def_cfa_offset 4
 3499              		@ sp needed
 3500 001e 5DF804FB 		ldr	pc, [sp], #4
 3501              	.LVL360:
 3502              	.L266:
 3503              	.LCFI47:
 3504              		.cfi_restore_state
1398:../../Middlewares/Third_Party/LwIP/src/core/pbuf.c **** }
ARM GAS  /tmp/cc8sHRun.s 			page 104


 3505              		.loc 1 1398 10 view .LVU1035
 3506 0022 4FF0FF30 		mov	r0, #-1
 3507              	.LVL361:
1398:../../Middlewares/Third_Party/LwIP/src/core/pbuf.c **** }
 3508              		.loc 1 1398 10 view .LVU1036
 3509 0026 F9E7     		b	.L264
 3510              	.LVL362:
 3511              	.L267:
1398:../../Middlewares/Third_Party/LwIP/src/core/pbuf.c **** }
 3512              		.loc 1 1398 10 view .LVU1037
 3513 0028 4FF0FF30 		mov	r0, #-1
 3514              	.LVL363:
1398:../../Middlewares/Third_Party/LwIP/src/core/pbuf.c **** }
 3515              		.loc 1 1398 10 view .LVU1038
 3516 002c F6E7     		b	.L264
 3517              		.cfi_endproc
 3518              	.LFE201:
 3520              		.section	.text.pbuf_get_at,"ax",%progbits
 3521              		.align	1
 3522              		.global	pbuf_get_at
 3523              		.syntax unified
 3524              		.thumb
 3525              		.thumb_func
 3527              	pbuf_get_at:
 3528              	.LVL364:
 3529              	.LFB200:
1372:../../Middlewares/Third_Party/LwIP/src/core/pbuf.c ****   int ret = pbuf_try_get_at(p, offset);
 3530              		.loc 1 1372 1 is_stmt 1 view -0
 3531              		.cfi_startproc
 3532              		@ args = 0, pretend = 0, frame = 0
 3533              		@ frame_needed = 0, uses_anonymous_args = 0
1372:../../Middlewares/Third_Party/LwIP/src/core/pbuf.c ****   int ret = pbuf_try_get_at(p, offset);
 3534              		.loc 1 1372 1 is_stmt 0 view .LVU1040
 3535 0000 08B5     		push	{r3, lr}
 3536              	.LCFI48:
 3537              		.cfi_def_cfa_offset 8
 3538              		.cfi_offset 3, -8
 3539              		.cfi_offset 14, -4
1373:../../Middlewares/Third_Party/LwIP/src/core/pbuf.c ****   if (ret >= 0) {
 3540              		.loc 1 1373 3 is_stmt 1 view .LVU1041
1373:../../Middlewares/Third_Party/LwIP/src/core/pbuf.c ****   if (ret >= 0) {
 3541              		.loc 1 1373 13 is_stmt 0 view .LVU1042
 3542 0002 FFF7FEFF 		bl	pbuf_try_get_at
 3543              	.LVL365:
1374:../../Middlewares/Third_Party/LwIP/src/core/pbuf.c ****     return (u8_t)ret;
 3544              		.loc 1 1374 3 is_stmt 1 view .LVU1043
1374:../../Middlewares/Third_Party/LwIP/src/core/pbuf.c ****     return (u8_t)ret;
 3545              		.loc 1 1374 6 is_stmt 0 view .LVU1044
 3546 0006 0028     		cmp	r0, #0
1374:../../Middlewares/Third_Party/LwIP/src/core/pbuf.c ****     return (u8_t)ret;
 3547              		.loc 1 1374 6 view .LVU1045
 3548 0008 01DA     		bge	.L273
1377:../../Middlewares/Third_Party/LwIP/src/core/pbuf.c **** }
 3549              		.loc 1 1377 10 view .LVU1046
 3550 000a 0020     		movs	r0, #0
 3551              	.LVL366:
 3552              	.L270:
ARM GAS  /tmp/cc8sHRun.s 			page 105


1378:../../Middlewares/Third_Party/LwIP/src/core/pbuf.c **** 
 3553              		.loc 1 1378 1 view .LVU1047
 3554 000c 08BD     		pop	{r3, pc}
 3555              	.LVL367:
 3556              	.L273:
1375:../../Middlewares/Third_Party/LwIP/src/core/pbuf.c ****   }
 3557              		.loc 1 1375 5 is_stmt 1 view .LVU1048
1375:../../Middlewares/Third_Party/LwIP/src/core/pbuf.c ****   }
 3558              		.loc 1 1375 12 is_stmt 0 view .LVU1049
 3559 000e C0B2     		uxtb	r0, r0
 3560              	.LVL368:
1375:../../Middlewares/Third_Party/LwIP/src/core/pbuf.c ****   }
 3561              		.loc 1 1375 12 view .LVU1050
 3562 0010 FCE7     		b	.L270
 3563              		.cfi_endproc
 3564              	.LFE200:
 3566              		.section	.text.pbuf_put_at,"ax",%progbits
 3567              		.align	1
 3568              		.global	pbuf_put_at
 3569              		.syntax unified
 3570              		.thumb
 3571              		.thumb_func
 3573              	pbuf_put_at:
 3574              	.LVL369:
 3575              	.LFB202:
1400:../../Middlewares/Third_Party/LwIP/src/core/pbuf.c **** 
1401:../../Middlewares/Third_Party/LwIP/src/core/pbuf.c **** /**
1402:../../Middlewares/Third_Party/LwIP/src/core/pbuf.c ****  * @ingroup pbuf
1403:../../Middlewares/Third_Party/LwIP/src/core/pbuf.c ****  * Put one byte to the specified position in a pbuf
1404:../../Middlewares/Third_Party/LwIP/src/core/pbuf.c ****  * WARNING: silently ignores offset >= p->tot_len
1405:../../Middlewares/Third_Party/LwIP/src/core/pbuf.c ****  *
1406:../../Middlewares/Third_Party/LwIP/src/core/pbuf.c ****  * @param p pbuf to fill
1407:../../Middlewares/Third_Party/LwIP/src/core/pbuf.c ****  * @param offset offset into p of the byte to write
1408:../../Middlewares/Third_Party/LwIP/src/core/pbuf.c ****  * @param data byte to write at an offset into p
1409:../../Middlewares/Third_Party/LwIP/src/core/pbuf.c ****  */
1410:../../Middlewares/Third_Party/LwIP/src/core/pbuf.c **** void
1411:../../Middlewares/Third_Party/LwIP/src/core/pbuf.c **** pbuf_put_at(struct pbuf *p, u16_t offset, u8_t data)
1412:../../Middlewares/Third_Party/LwIP/src/core/pbuf.c **** {
 3576              		.loc 1 1412 1 is_stmt 1 view -0
 3577              		.cfi_startproc
 3578              		@ args = 0, pretend = 0, frame = 8
 3579              		@ frame_needed = 0, uses_anonymous_args = 0
 3580              		.loc 1 1412 1 is_stmt 0 view .LVU1052
 3581 0000 10B5     		push	{r4, lr}
 3582              	.LCFI49:
 3583              		.cfi_def_cfa_offset 8
 3584              		.cfi_offset 4, -8
 3585              		.cfi_offset 14, -4
 3586 0002 82B0     		sub	sp, sp, #8
 3587              	.LCFI50:
 3588              		.cfi_def_cfa_offset 16
 3589 0004 1446     		mov	r4, r2
1413:../../Middlewares/Third_Party/LwIP/src/core/pbuf.c ****   u16_t q_idx;
 3590              		.loc 1 1413 3 is_stmt 1 view .LVU1053
1414:../../Middlewares/Third_Party/LwIP/src/core/pbuf.c ****   struct pbuf *q = pbuf_skip(p, offset, &q_idx);
 3591              		.loc 1 1414 3 view .LVU1054
 3592              		.loc 1 1414 20 is_stmt 0 view .LVU1055
ARM GAS  /tmp/cc8sHRun.s 			page 106


 3593 0006 0DF10602 		add	r2, sp, #6
 3594              	.LVL370:
 3595              		.loc 1 1414 20 view .LVU1056
 3596 000a FFF7FEFF 		bl	pbuf_skip
 3597              	.LVL371:
1415:../../Middlewares/Third_Party/LwIP/src/core/pbuf.c **** 
1416:../../Middlewares/Third_Party/LwIP/src/core/pbuf.c ****   /* write requested data if pbuf is OK */
1417:../../Middlewares/Third_Party/LwIP/src/core/pbuf.c ****   if ((q != NULL) && (q->len > q_idx)) {
 3598              		.loc 1 1417 3 is_stmt 1 view .LVU1057
 3599              		.loc 1 1417 6 is_stmt 0 view .LVU1058
 3600 000e 30B1     		cbz	r0, .L274
 3601              		.loc 1 1417 24 discriminator 1 view .LVU1059
 3602 0010 4189     		ldrh	r1, [r0, #10]
 3603              		.loc 1 1417 30 discriminator 1 view .LVU1060
 3604 0012 BDF80620 		ldrh	r2, [sp, #6]
 3605              		.loc 1 1417 19 discriminator 1 view .LVU1061
 3606 0016 9142     		cmp	r1, r2
 3607 0018 01D9     		bls	.L274
1418:../../Middlewares/Third_Party/LwIP/src/core/pbuf.c ****     ((u8_t *)q->payload)[q_idx] = data;
 3608              		.loc 1 1418 5 is_stmt 1 view .LVU1062
 3609              		.loc 1 1418 15 is_stmt 0 view .LVU1063
 3610 001a 4368     		ldr	r3, [r0, #4]
 3611              		.loc 1 1418 33 view .LVU1064
 3612 001c 9C54     		strb	r4, [r3, r2]
 3613              	.L274:
1419:../../Middlewares/Third_Party/LwIP/src/core/pbuf.c ****   }
1420:../../Middlewares/Third_Party/LwIP/src/core/pbuf.c **** }
 3614              		.loc 1 1420 1 view .LVU1065
 3615 001e 02B0     		add	sp, sp, #8
 3616              	.LCFI51:
 3617              		.cfi_def_cfa_offset 8
 3618              		@ sp needed
 3619 0020 10BD     		pop	{r4, pc}
 3620              		.loc 1 1420 1 view .LVU1066
 3621              		.cfi_endproc
 3622              	.LFE202:
 3624              		.section	.text.pbuf_memcmp,"ax",%progbits
 3625              		.align	1
 3626              		.global	pbuf_memcmp
 3627              		.syntax unified
 3628              		.thumb
 3629              		.thumb_func
 3631              	pbuf_memcmp:
 3632              	.LVL372:
 3633              	.LFB203:
1421:../../Middlewares/Third_Party/LwIP/src/core/pbuf.c **** 
1422:../../Middlewares/Third_Party/LwIP/src/core/pbuf.c **** /**
1423:../../Middlewares/Third_Party/LwIP/src/core/pbuf.c ****  * @ingroup pbuf
1424:../../Middlewares/Third_Party/LwIP/src/core/pbuf.c ****  * Compare pbuf contents at specified offset with memory s2, both of length n
1425:../../Middlewares/Third_Party/LwIP/src/core/pbuf.c ****  *
1426:../../Middlewares/Third_Party/LwIP/src/core/pbuf.c ****  * @param p pbuf to compare
1427:../../Middlewares/Third_Party/LwIP/src/core/pbuf.c ****  * @param offset offset into p at which to start comparing
1428:../../Middlewares/Third_Party/LwIP/src/core/pbuf.c ****  * @param s2 buffer to compare
1429:../../Middlewares/Third_Party/LwIP/src/core/pbuf.c ****  * @param n length of buffer to compare
1430:../../Middlewares/Third_Party/LwIP/src/core/pbuf.c ****  * @return zero if equal, nonzero otherwise
1431:../../Middlewares/Third_Party/LwIP/src/core/pbuf.c ****  *         (0xffff if p is too short, diffoffset+1 otherwise)
1432:../../Middlewares/Third_Party/LwIP/src/core/pbuf.c ****  */
ARM GAS  /tmp/cc8sHRun.s 			page 107


1433:../../Middlewares/Third_Party/LwIP/src/core/pbuf.c **** u16_t
1434:../../Middlewares/Third_Party/LwIP/src/core/pbuf.c **** pbuf_memcmp(const struct pbuf *p, u16_t offset, const void *s2, u16_t n)
1435:../../Middlewares/Third_Party/LwIP/src/core/pbuf.c **** {
 3634              		.loc 1 1435 1 is_stmt 1 view -0
 3635              		.cfi_startproc
 3636              		@ args = 0, pretend = 0, frame = 0
 3637              		@ frame_needed = 0, uses_anonymous_args = 0
 3638              		.loc 1 1435 1 is_stmt 0 view .LVU1068
 3639 0000 2DE9F041 		push	{r4, r5, r6, r7, r8, lr}
 3640              	.LCFI52:
 3641              		.cfi_def_cfa_offset 24
 3642              		.cfi_offset 4, -24
 3643              		.cfi_offset 5, -20
 3644              		.cfi_offset 6, -16
 3645              		.cfi_offset 7, -12
 3646              		.cfi_offset 8, -8
 3647              		.cfi_offset 14, -4
 3648 0004 0546     		mov	r5, r0
 3649 0006 0E46     		mov	r6, r1
 3650 0008 9046     		mov	r8, r2
 3651 000a 1F46     		mov	r7, r3
1436:../../Middlewares/Third_Party/LwIP/src/core/pbuf.c ****   u16_t start = offset;
 3652              		.loc 1 1436 3 is_stmt 1 view .LVU1069
 3653              	.LVL373:
1437:../../Middlewares/Third_Party/LwIP/src/core/pbuf.c ****   const struct pbuf *q = p;
 3654              		.loc 1 1437 3 view .LVU1070
1438:../../Middlewares/Third_Party/LwIP/src/core/pbuf.c ****   u16_t i;
 3655              		.loc 1 1438 3 view .LVU1071
1439:../../Middlewares/Third_Party/LwIP/src/core/pbuf.c **** 
1440:../../Middlewares/Third_Party/LwIP/src/core/pbuf.c ****   /* pbuf long enough to perform check? */
1441:../../Middlewares/Third_Party/LwIP/src/core/pbuf.c ****   if (p->tot_len < (offset + n)) {
 3656              		.loc 1 1441 3 view .LVU1072
 3657              		.loc 1 1441 8 is_stmt 0 view .LVU1073
 3658 000c 0289     		ldrh	r2, [r0, #8]
 3659              	.LVL374:
 3660              		.loc 1 1441 28 view .LVU1074
 3661 000e CB18     		adds	r3, r1, r3
 3662              	.LVL375:
 3663              		.loc 1 1441 6 view .LVU1075
 3664 0010 9A42     		cmp	r2, r3
 3665 0012 05DA     		bge	.L279
1442:../../Middlewares/Third_Party/LwIP/src/core/pbuf.c ****     return 0xffff;
 3666              		.loc 1 1442 12 view .LVU1076
 3667 0014 4FF6FF70 		movw	r0, #65535
 3668              	.LVL376:
 3669              		.loc 1 1442 12 view .LVU1077
 3670 0018 20E0     		b	.L278
 3671              	.LVL377:
 3672              	.L281:
1443:../../Middlewares/Third_Party/LwIP/src/core/pbuf.c ****   }
1444:../../Middlewares/Third_Party/LwIP/src/core/pbuf.c **** 
1445:../../Middlewares/Third_Party/LwIP/src/core/pbuf.c ****   /* get the correct pbuf from chain. We know it succeeds because of p->tot_len check above. */
1446:../../Middlewares/Third_Party/LwIP/src/core/pbuf.c ****   while ((q != NULL) && (q->len <= start)) {
1447:../../Middlewares/Third_Party/LwIP/src/core/pbuf.c ****     start = (u16_t)(start - q->len);
 3673              		.loc 1 1447 5 is_stmt 1 view .LVU1078
 3674              		.loc 1 1447 11 is_stmt 0 view .LVU1079
 3675 001a 301A     		subs	r0, r6, r0
ARM GAS  /tmp/cc8sHRun.s 			page 108


 3676 001c 86B2     		uxth	r6, r0
 3677              	.LVL378:
1448:../../Middlewares/Third_Party/LwIP/src/core/pbuf.c ****     q = q->next;
 3678              		.loc 1 1448 5 is_stmt 1 view .LVU1080
 3679              		.loc 1 1448 7 is_stmt 0 view .LVU1081
 3680 001e 2D68     		ldr	r5, [r5]
 3681              	.LVL379:
 3682              	.L279:
1446:../../Middlewares/Third_Party/LwIP/src/core/pbuf.c ****     start = (u16_t)(start - q->len);
 3683              		.loc 1 1446 22 is_stmt 1 view .LVU1082
 3684 0020 65B1     		cbz	r5, .L286
1446:../../Middlewares/Third_Party/LwIP/src/core/pbuf.c ****     start = (u16_t)(start - q->len);
 3685              		.loc 1 1446 27 is_stmt 0 discriminator 1 view .LVU1083
 3686 0022 6889     		ldrh	r0, [r5, #10]
1446:../../Middlewares/Third_Party/LwIP/src/core/pbuf.c ****     start = (u16_t)(start - q->len);
 3687              		.loc 1 1446 22 discriminator 1 view .LVU1084
 3688 0024 B042     		cmp	r0, r6
 3689 0026 F8D9     		bls	.L281
 3690 0028 0024     		movs	r4, #0
 3691 002a 08E0     		b	.L283
 3692              	.LVL380:
 3693              	.L289:
 3694              	.LBB15:
1449:../../Middlewares/Third_Party/LwIP/src/core/pbuf.c ****   }
1450:../../Middlewares/Third_Party/LwIP/src/core/pbuf.c **** 
1451:../../Middlewares/Third_Party/LwIP/src/core/pbuf.c ****   /* return requested data if pbuf is OK */
1452:../../Middlewares/Third_Party/LwIP/src/core/pbuf.c ****   for (i = 0; i < n; i++) {
1453:../../Middlewares/Third_Party/LwIP/src/core/pbuf.c ****     /* We know pbuf_get_at() succeeds because of p->tot_len check above. */
1454:../../Middlewares/Third_Party/LwIP/src/core/pbuf.c ****     u8_t a = pbuf_get_at(q, (u16_t)(start + i));
1455:../../Middlewares/Third_Party/LwIP/src/core/pbuf.c ****     u8_t b = ((const u8_t *)s2)[i];
1456:../../Middlewares/Third_Party/LwIP/src/core/pbuf.c ****     if (a != b) {
1457:../../Middlewares/Third_Party/LwIP/src/core/pbuf.c ****       return (u16_t)LWIP_MIN(i + 1, 0xFFFF);
 3695              		.loc 1 1457 7 is_stmt 1 view .LVU1085
 3696              		.loc 1 1457 14 is_stmt 0 view .LVU1086
 3697 002c 4FF6FE70 		movw	r0, #65534
 3698              	.LVL381:
 3699              		.loc 1 1457 14 view .LVU1087
 3700 0030 A042     		cmp	r0, r4
 3701 0032 28BF     		it	cs
 3702 0034 2046     		movcs	r0, r4
 3703 0036 0130     		adds	r0, r0, #1
 3704 0038 80B2     		uxth	r0, r0
 3705 003a 0FE0     		b	.L278
 3706              	.LVL382:
 3707              	.L286:
 3708              		.loc 1 1457 14 view .LVU1088
 3709              	.LBE15:
 3710 003c 0024     		movs	r4, #0
 3711              	.LVL383:
 3712              	.L283:
1452:../../Middlewares/Third_Party/LwIP/src/core/pbuf.c ****     /* We know pbuf_get_at() succeeds because of p->tot_len check above. */
 3713              		.loc 1 1452 17 is_stmt 1 discriminator 1 view .LVU1089
 3714 003e BC42     		cmp	r4, r7
 3715 0040 0BD2     		bcs	.L288
 3716              	.LBB16:
1454:../../Middlewares/Third_Party/LwIP/src/core/pbuf.c ****     u8_t b = ((const u8_t *)s2)[i];
 3717              		.loc 1 1454 5 view .LVU1090
ARM GAS  /tmp/cc8sHRun.s 			page 109


1454:../../Middlewares/Third_Party/LwIP/src/core/pbuf.c ****     u8_t b = ((const u8_t *)s2)[i];
 3718              		.loc 1 1454 14 is_stmt 0 view .LVU1091
 3719 0042 3119     		adds	r1, r6, r4
 3720 0044 89B2     		uxth	r1, r1
 3721 0046 2846     		mov	r0, r5
 3722 0048 FFF7FEFF 		bl	pbuf_get_at
 3723              	.LVL384:
1455:../../Middlewares/Third_Party/LwIP/src/core/pbuf.c ****     if (a != b) {
 3724              		.loc 1 1455 5 is_stmt 1 view .LVU1092
1455:../../Middlewares/Third_Party/LwIP/src/core/pbuf.c ****     if (a != b) {
 3725              		.loc 1 1455 10 is_stmt 0 view .LVU1093
 3726 004c 18F80410 		ldrb	r1, [r8, r4]	@ zero_extendqisi2
 3727              	.LVL385:
1456:../../Middlewares/Third_Party/LwIP/src/core/pbuf.c ****       return (u16_t)LWIP_MIN(i + 1, 0xFFFF);
 3728              		.loc 1 1456 5 is_stmt 1 view .LVU1094
1456:../../Middlewares/Third_Party/LwIP/src/core/pbuf.c ****       return (u16_t)LWIP_MIN(i + 1, 0xFFFF);
 3729              		.loc 1 1456 8 is_stmt 0 view .LVU1095
 3730 0050 8842     		cmp	r0, r1
 3731 0052 EBD1     		bne	.L289
 3732              	.LBE16:
1452:../../Middlewares/Third_Party/LwIP/src/core/pbuf.c ****     /* We know pbuf_get_at() succeeds because of p->tot_len check above. */
 3733              		.loc 1 1452 23 is_stmt 1 discriminator 2 view .LVU1096
 3734 0054 0134     		adds	r4, r4, #1
 3735              	.LVL386:
1452:../../Middlewares/Third_Party/LwIP/src/core/pbuf.c ****     /* We know pbuf_get_at() succeeds because of p->tot_len check above. */
 3736              		.loc 1 1452 23 is_stmt 0 discriminator 2 view .LVU1097
 3737 0056 A4B2     		uxth	r4, r4
 3738              	.LVL387:
1452:../../Middlewares/Third_Party/LwIP/src/core/pbuf.c ****     /* We know pbuf_get_at() succeeds because of p->tot_len check above. */
 3739              		.loc 1 1452 23 discriminator 2 view .LVU1098
 3740 0058 F1E7     		b	.L283
 3741              	.LVL388:
 3742              	.L288:
1458:../../Middlewares/Third_Party/LwIP/src/core/pbuf.c ****     }
1459:../../Middlewares/Third_Party/LwIP/src/core/pbuf.c ****   }
1460:../../Middlewares/Third_Party/LwIP/src/core/pbuf.c ****   return 0;
 3743              		.loc 1 1460 10 view .LVU1099
 3744 005a 0020     		movs	r0, #0
 3745              	.LVL389:
 3746              	.L278:
1461:../../Middlewares/Third_Party/LwIP/src/core/pbuf.c **** }
 3747              		.loc 1 1461 1 view .LVU1100
 3748 005c BDE8F081 		pop	{r4, r5, r6, r7, r8, pc}
 3749              		.loc 1 1461 1 view .LVU1101
 3750              		.cfi_endproc
 3751              	.LFE203:
 3753              		.section	.text.pbuf_memfind,"ax",%progbits
 3754              		.align	1
 3755              		.global	pbuf_memfind
 3756              		.syntax unified
 3757              		.thumb
 3758              		.thumb_func
 3760              	pbuf_memfind:
 3761              	.LVL390:
 3762              	.LFB204:
1462:../../Middlewares/Third_Party/LwIP/src/core/pbuf.c **** 
1463:../../Middlewares/Third_Party/LwIP/src/core/pbuf.c **** /**
ARM GAS  /tmp/cc8sHRun.s 			page 110


1464:../../Middlewares/Third_Party/LwIP/src/core/pbuf.c ****  * @ingroup pbuf
1465:../../Middlewares/Third_Party/LwIP/src/core/pbuf.c ****  * Find occurrence of mem (with length mem_len) in pbuf p, starting at offset
1466:../../Middlewares/Third_Party/LwIP/src/core/pbuf.c ****  * start_offset.
1467:../../Middlewares/Third_Party/LwIP/src/core/pbuf.c ****  *
1468:../../Middlewares/Third_Party/LwIP/src/core/pbuf.c ****  * @param p pbuf to search, maximum length is 0xFFFE since 0xFFFF is used as
1469:../../Middlewares/Third_Party/LwIP/src/core/pbuf.c ****  *        return value 'not found'
1470:../../Middlewares/Third_Party/LwIP/src/core/pbuf.c ****  * @param mem search for the contents of this buffer
1471:../../Middlewares/Third_Party/LwIP/src/core/pbuf.c ****  * @param mem_len length of 'mem'
1472:../../Middlewares/Third_Party/LwIP/src/core/pbuf.c ****  * @param start_offset offset into p at which to start searching
1473:../../Middlewares/Third_Party/LwIP/src/core/pbuf.c ****  * @return 0xFFFF if substr was not found in p or the index where it was found
1474:../../Middlewares/Third_Party/LwIP/src/core/pbuf.c ****  */
1475:../../Middlewares/Third_Party/LwIP/src/core/pbuf.c **** u16_t
1476:../../Middlewares/Third_Party/LwIP/src/core/pbuf.c **** pbuf_memfind(const struct pbuf *p, const void *mem, u16_t mem_len, u16_t start_offset)
1477:../../Middlewares/Third_Party/LwIP/src/core/pbuf.c **** {
 3763              		.loc 1 1477 1 is_stmt 1 view -0
 3764              		.cfi_startproc
 3765              		@ args = 0, pretend = 0, frame = 0
 3766              		@ frame_needed = 0, uses_anonymous_args = 0
 3767              		.loc 1 1477 1 is_stmt 0 view .LVU1103
 3768 0000 2DE9F041 		push	{r4, r5, r6, r7, r8, lr}
 3769              	.LCFI53:
 3770              		.cfi_def_cfa_offset 24
 3771              		.cfi_offset 4, -24
 3772              		.cfi_offset 5, -20
 3773              		.cfi_offset 6, -16
 3774              		.cfi_offset 7, -12
 3775              		.cfi_offset 8, -8
 3776              		.cfi_offset 14, -4
 3777 0004 0646     		mov	r6, r0
 3778 0006 8846     		mov	r8, r1
 3779 0008 1546     		mov	r5, r2
 3780 000a 1C46     		mov	r4, r3
1478:../../Middlewares/Third_Party/LwIP/src/core/pbuf.c ****   u16_t i;
 3781              		.loc 1 1478 3 is_stmt 1 view .LVU1104
1479:../../Middlewares/Third_Party/LwIP/src/core/pbuf.c ****   u16_t max_cmp_start = (u16_t)(p->tot_len - mem_len);
 3782              		.loc 1 1479 3 view .LVU1105
 3783              		.loc 1 1479 34 is_stmt 0 view .LVU1106
 3784 000c 0389     		ldrh	r3, [r0, #8]
 3785              	.LVL391:
 3786              		.loc 1 1479 9 view .LVU1107
 3787 000e 9F1A     		subs	r7, r3, r2
 3788 0010 BFB2     		uxth	r7, r7
 3789              	.LVL392:
1480:../../Middlewares/Third_Party/LwIP/src/core/pbuf.c ****   if (p->tot_len >= mem_len + start_offset) {
 3790              		.loc 1 1480 3 is_stmt 1 view .LVU1108
 3791              		.loc 1 1480 29 is_stmt 0 view .LVU1109
 3792 0012 2244     		add	r2, r2, r4
 3793              	.LVL393:
 3794              		.loc 1 1480 6 view .LVU1110
 3795 0014 9342     		cmp	r3, r2
 3796 0016 0BDB     		blt	.L296
 3797              	.LVL394:
 3798              	.L291:
1481:../../Middlewares/Third_Party/LwIP/src/core/pbuf.c ****     for (i = start_offset; i <= max_cmp_start; i++) {
 3799              		.loc 1 1481 30 is_stmt 1 discriminator 1 view .LVU1111
 3800 0018 BC42     		cmp	r4, r7
 3801 001a 0DD8     		bhi	.L297
ARM GAS  /tmp/cc8sHRun.s 			page 111


 3802              	.LBB17:
1482:../../Middlewares/Third_Party/LwIP/src/core/pbuf.c ****       u16_t plus = pbuf_memcmp(p, i, mem, mem_len);
 3803              		.loc 1 1482 7 view .LVU1112
 3804              		.loc 1 1482 20 is_stmt 0 view .LVU1113
 3805 001c 2B46     		mov	r3, r5
 3806 001e 4246     		mov	r2, r8
 3807 0020 2146     		mov	r1, r4
 3808 0022 3046     		mov	r0, r6
 3809 0024 FFF7FEFF 		bl	pbuf_memcmp
 3810              	.LVL395:
1483:../../Middlewares/Third_Party/LwIP/src/core/pbuf.c ****       if (plus == 0) {
 3811              		.loc 1 1483 7 is_stmt 1 view .LVU1114
 3812              		.loc 1 1483 10 is_stmt 0 view .LVU1115
 3813 0028 48B1     		cbz	r0, .L294
 3814              	.LBE17:
1481:../../Middlewares/Third_Party/LwIP/src/core/pbuf.c ****     for (i = start_offset; i <= max_cmp_start; i++) {
 3815              		.loc 1 1481 49 is_stmt 1 discriminator 2 view .LVU1116
 3816 002a 0134     		adds	r4, r4, #1
 3817              	.LVL396:
1481:../../Middlewares/Third_Party/LwIP/src/core/pbuf.c ****     for (i = start_offset; i <= max_cmp_start; i++) {
 3818              		.loc 1 1481 49 is_stmt 0 discriminator 2 view .LVU1117
 3819 002c A4B2     		uxth	r4, r4
 3820              	.LVL397:
1481:../../Middlewares/Third_Party/LwIP/src/core/pbuf.c ****     for (i = start_offset; i <= max_cmp_start; i++) {
 3821              		.loc 1 1481 49 discriminator 2 view .LVU1118
 3822 002e F3E7     		b	.L291
 3823              	.LVL398:
 3824              	.L296:
1484:../../Middlewares/Third_Party/LwIP/src/core/pbuf.c ****         return i;
1485:../../Middlewares/Third_Party/LwIP/src/core/pbuf.c ****       }
1486:../../Middlewares/Third_Party/LwIP/src/core/pbuf.c ****     }
1487:../../Middlewares/Third_Party/LwIP/src/core/pbuf.c ****   }
1488:../../Middlewares/Third_Party/LwIP/src/core/pbuf.c ****   return 0xFFFF;
 3825              		.loc 1 1488 10 view .LVU1119
 3826 0030 4FF6FF70 		movw	r0, #65535
 3827              	.LVL399:
 3828              	.L292:
1489:../../Middlewares/Third_Party/LwIP/src/core/pbuf.c **** }
 3829              		.loc 1 1489 1 view .LVU1120
 3830 0034 BDE8F081 		pop	{r4, r5, r6, r7, r8, pc}
 3831              	.LVL400:
 3832              	.L297:
1488:../../Middlewares/Third_Party/LwIP/src/core/pbuf.c **** }
 3833              		.loc 1 1488 10 view .LVU1121
 3834 0038 4FF6FF70 		movw	r0, #65535
 3835 003c FAE7     		b	.L292
 3836              	.LVL401:
 3837              	.L294:
 3838              	.LBB18:
1484:../../Middlewares/Third_Party/LwIP/src/core/pbuf.c ****         return i;
 3839              		.loc 1 1484 16 view .LVU1122
 3840 003e 2046     		mov	r0, r4
 3841              	.LVL402:
1484:../../Middlewares/Third_Party/LwIP/src/core/pbuf.c ****         return i;
 3842              		.loc 1 1484 16 view .LVU1123
 3843 0040 F8E7     		b	.L292
 3844              	.LBE18:
ARM GAS  /tmp/cc8sHRun.s 			page 112


 3845              		.cfi_endproc
 3846              	.LFE204:
 3848              		.section	.text.pbuf_strstr,"ax",%progbits
 3849              		.align	1
 3850              		.global	pbuf_strstr
 3851              		.syntax unified
 3852              		.thumb
 3853              		.thumb_func
 3855              	pbuf_strstr:
 3856              	.LVL403:
 3857              	.LFB205:
1490:../../Middlewares/Third_Party/LwIP/src/core/pbuf.c **** 
1491:../../Middlewares/Third_Party/LwIP/src/core/pbuf.c **** /**
1492:../../Middlewares/Third_Party/LwIP/src/core/pbuf.c ****  * Find occurrence of substr with length substr_len in pbuf p, start at offset
1493:../../Middlewares/Third_Party/LwIP/src/core/pbuf.c ****  * start_offset
1494:../../Middlewares/Third_Party/LwIP/src/core/pbuf.c ****  * WARNING: in contrast to strstr(), this one does not stop at the first \0 in
1495:../../Middlewares/Third_Party/LwIP/src/core/pbuf.c ****  * the pbuf/source string!
1496:../../Middlewares/Third_Party/LwIP/src/core/pbuf.c ****  *
1497:../../Middlewares/Third_Party/LwIP/src/core/pbuf.c ****  * @param p pbuf to search, maximum length is 0xFFFE since 0xFFFF is used as
1498:../../Middlewares/Third_Party/LwIP/src/core/pbuf.c ****  *        return value 'not found'
1499:../../Middlewares/Third_Party/LwIP/src/core/pbuf.c ****  * @param substr string to search for in p, maximum length is 0xFFFE
1500:../../Middlewares/Third_Party/LwIP/src/core/pbuf.c ****  * @return 0xFFFF if substr was not found in p or the index where it was found
1501:../../Middlewares/Third_Party/LwIP/src/core/pbuf.c ****  */
1502:../../Middlewares/Third_Party/LwIP/src/core/pbuf.c **** u16_t
1503:../../Middlewares/Third_Party/LwIP/src/core/pbuf.c **** pbuf_strstr(const struct pbuf *p, const char *substr)
1504:../../Middlewares/Third_Party/LwIP/src/core/pbuf.c **** {
 3858              		.loc 1 1504 1 is_stmt 1 view -0
 3859              		.cfi_startproc
 3860              		@ args = 0, pretend = 0, frame = 0
 3861              		@ frame_needed = 0, uses_anonymous_args = 0
1505:../../Middlewares/Third_Party/LwIP/src/core/pbuf.c ****   size_t substr_len;
 3862              		.loc 1 1505 3 view .LVU1125
1506:../../Middlewares/Third_Party/LwIP/src/core/pbuf.c ****   if ((substr == NULL) || (substr[0] == 0) || (p->tot_len == 0xFFFF)) {
 3863              		.loc 1 1506 3 view .LVU1126
 3864              		.loc 1 1506 6 is_stmt 0 view .LVU1127
 3865 0000 B9B1     		cbz	r1, .L300
1504:../../Middlewares/Third_Party/LwIP/src/core/pbuf.c ****   size_t substr_len;
 3866              		.loc 1 1504 1 view .LVU1128
 3867 0002 38B5     		push	{r3, r4, r5, lr}
 3868              	.LCFI54:
 3869              		.cfi_def_cfa_offset 16
 3870              		.cfi_offset 3, -16
 3871              		.cfi_offset 4, -12
 3872              		.cfi_offset 5, -8
 3873              		.cfi_offset 14, -4
 3874 0004 0446     		mov	r4, r0
 3875 0006 0D46     		mov	r5, r1
 3876              		.loc 1 1506 34 discriminator 1 view .LVU1129
 3877 0008 0B78     		ldrb	r3, [r1]	@ zero_extendqisi2
 3878              		.loc 1 1506 24 discriminator 1 view .LVU1130
 3879 000a ABB1     		cbz	r3, .L301
 3880              		.loc 1 1506 49 discriminator 2 view .LVU1131
 3881 000c 0089     		ldrh	r0, [r0, #8]
 3882              	.LVL404:
 3883              		.loc 1 1506 44 discriminator 2 view .LVU1132
 3884 000e 4FF6FF73 		movw	r3, #65535
 3885 0012 9842     		cmp	r0, r3
ARM GAS  /tmp/cc8sHRun.s 			page 113


 3886 0014 0CD0     		beq	.L299
1507:../../Middlewares/Third_Party/LwIP/src/core/pbuf.c ****     return 0xFFFF;
1508:../../Middlewares/Third_Party/LwIP/src/core/pbuf.c ****   }
1509:../../Middlewares/Third_Party/LwIP/src/core/pbuf.c ****   substr_len = strlen(substr);
 3887              		.loc 1 1509 3 is_stmt 1 view .LVU1133
 3888              		.loc 1 1509 16 is_stmt 0 view .LVU1134
 3889 0016 0846     		mov	r0, r1
 3890 0018 FFF7FEFF 		bl	strlen
 3891              	.LVL405:
1510:../../Middlewares/Third_Party/LwIP/src/core/pbuf.c ****   if (substr_len >= 0xFFFF) {
 3892              		.loc 1 1510 3 is_stmt 1 view .LVU1135
 3893              		.loc 1 1510 6 is_stmt 0 view .LVU1136
 3894 001c 4FF6FE73 		movw	r3, #65534
 3895 0020 9842     		cmp	r0, r3
 3896 0022 0CD8     		bhi	.L302
1511:../../Middlewares/Third_Party/LwIP/src/core/pbuf.c ****     return 0xFFFF;
1512:../../Middlewares/Third_Party/LwIP/src/core/pbuf.c ****   }
1513:../../Middlewares/Third_Party/LwIP/src/core/pbuf.c ****   return pbuf_memfind(p, substr, (u16_t)substr_len, 0);
 3897              		.loc 1 1513 3 is_stmt 1 view .LVU1137
 3898              		.loc 1 1513 10 is_stmt 0 view .LVU1138
 3899 0024 0023     		movs	r3, #0
 3900 0026 82B2     		uxth	r2, r0
 3901 0028 2946     		mov	r1, r5
 3902 002a 2046     		mov	r0, r4
 3903              	.LVL406:
 3904              		.loc 1 1513 10 view .LVU1139
 3905 002c FFF7FEFF 		bl	pbuf_memfind
 3906              	.LVL407:
 3907              	.L299:
1514:../../Middlewares/Third_Party/LwIP/src/core/pbuf.c **** }
 3908              		.loc 1 1514 1 view .LVU1140
 3909 0030 38BD     		pop	{r3, r4, r5, pc}
 3910              	.LVL408:
 3911              	.L300:
 3912              	.LCFI55:
 3913              		.cfi_def_cfa_offset 0
 3914              		.cfi_restore 3
 3915              		.cfi_restore 4
 3916              		.cfi_restore 5
 3917              		.cfi_restore 14
1507:../../Middlewares/Third_Party/LwIP/src/core/pbuf.c ****   }
 3918              		.loc 1 1507 12 view .LVU1141
 3919 0032 4FF6FF70 		movw	r0, #65535
 3920              	.LVL409:
 3921              		.loc 1 1514 1 view .LVU1142
 3922 0036 7047     		bx	lr
 3923              	.LVL410:
 3924              	.L301:
 3925              	.LCFI56:
 3926              		.cfi_def_cfa_offset 16
 3927              		.cfi_offset 3, -16
 3928              		.cfi_offset 4, -12
 3929              		.cfi_offset 5, -8
 3930              		.cfi_offset 14, -4
1507:../../Middlewares/Third_Party/LwIP/src/core/pbuf.c ****   }
 3931              		.loc 1 1507 12 view .LVU1143
 3932 0038 4FF6FF70 		movw	r0, #65535
ARM GAS  /tmp/cc8sHRun.s 			page 114


 3933              	.LVL411:
1507:../../Middlewares/Third_Party/LwIP/src/core/pbuf.c ****   }
 3934              		.loc 1 1507 12 view .LVU1144
 3935 003c F8E7     		b	.L299
 3936              	.LVL412:
 3937              	.L302:
1511:../../Middlewares/Third_Party/LwIP/src/core/pbuf.c ****     return 0xFFFF;
 3938              		.loc 1 1511 12 view .LVU1145
 3939 003e 4FF6FF70 		movw	r0, #65535
 3940              	.LVL413:
1511:../../Middlewares/Third_Party/LwIP/src/core/pbuf.c ****     return 0xFFFF;
 3941              		.loc 1 1511 12 view .LVU1146
 3942 0042 F5E7     		b	.L299
 3943              		.cfi_endproc
 3944              	.LFE205:
 3946              		.global	pbuf_free_ooseq_pending
 3947              		.section	.bss.pbuf_free_ooseq_pending,"aw",%nobits
 3950              	pbuf_free_ooseq_pending:
 3951 0000 00       		.space	1
 3952              		.text
 3953              	.Letext0:
 3954              		.file 2 "/usr/arm-none-eabi/include/machine/_default_types.h"
 3955              		.file 3 "/usr/arm-none-eabi/include/sys/_stdint.h"
 3956              		.file 4 "/usr/lib/gcc/arm-none-eabi/14.1.0/include/stddef.h"
 3957              		.file 5 "../../Middlewares/Third_Party/LwIP/src/include/lwip/arch.h"
 3958              		.file 6 "../../Middlewares/Third_Party/LwIP/src/include/lwip/err.h"
 3959              		.file 7 "../../Middlewares/Third_Party/LwIP/src/include/lwip/pbuf.h"
 3960              		.file 8 "../../Middlewares/Third_Party/LwIP/src/include/lwip/mem.h"
 3961              		.file 9 "../../Middlewares/Third_Party/LwIP/src/include/lwip/memp.h"
 3962              		.file 10 "../../Middlewares/Third_Party/LwIP/src/include/lwip/ip4_addr.h"
 3963              		.file 11 "../../Middlewares/Third_Party/LwIP/src/include/lwip/ip_addr.h"
 3964              		.file 12 "../../Middlewares/Third_Party/LwIP/src/include/lwip/tcpbase.h"
 3965              		.file 13 "../../Middlewares/Third_Party/LwIP/src/include/lwip/netif.h"
 3966              		.file 14 "../../Middlewares/Third_Party/LwIP/src/include/lwip/tcp.h"
 3967              		.file 15 "../../Middlewares/Third_Party/LwIP/src/include/lwip/priv/tcp_priv.h"
 3968              		.file 16 "../../Middlewares/Third_Party/LwIP/src/include/lwip/prot/tcp.h"
 3969              		.file 17 "/usr/arm-none-eabi/include/string.h"
 3970              		.file 18 "/usr/arm-none-eabi/include/stdio.h"
 3971              		.file 19 "<built-in>"
ARM GAS  /tmp/cc8sHRun.s 			page 115


DEFINED SYMBOLS
                            *ABS*:00000000 pbuf.c
     /tmp/cc8sHRun.s:20     .text.pbuf_pool_is_empty:00000000 $t
     /tmp/cc8sHRun.s:25     .text.pbuf_pool_is_empty:00000000 pbuf_pool_is_empty
     /tmp/cc8sHRun.s:46     .text.pbuf_pool_is_empty:00000008 $d
     /tmp/cc8sHRun.s:3950   .bss.pbuf_free_ooseq_pending:00000000 pbuf_free_ooseq_pending
     /tmp/cc8sHRun.s:51     .text.pbuf_init_alloced_pbuf:00000000 $t
     /tmp/cc8sHRun.s:56     .text.pbuf_init_alloced_pbuf:00000000 pbuf_init_alloced_pbuf
     /tmp/cc8sHRun.s:111    .text.pbuf_skip_const:00000000 $t
     /tmp/cc8sHRun.s:116    .text.pbuf_skip_const:00000000 pbuf_skip_const
     /tmp/cc8sHRun.s:165    .rodata.pbuf_add_header_impl.str1.4:00000000 $d
     /tmp/cc8sHRun.s:175    .text.pbuf_add_header_impl:00000000 $t
     /tmp/cc8sHRun.s:180    .text.pbuf_add_header_impl:00000000 pbuf_add_header_impl
     /tmp/cc8sHRun.s:326    .text.pbuf_add_header_impl:00000070 $d
     /tmp/cc8sHRun.s:333    .text.pbuf_free_ooseq:00000000 $t
     /tmp/cc8sHRun.s:339    .text.pbuf_free_ooseq:00000000 pbuf_free_ooseq
     /tmp/cc8sHRun.s:391    .text.pbuf_free_ooseq:00000020 $d
     /tmp/cc8sHRun.s:397    .rodata.pbuf_alloc_reference.str1.4:00000000 $d
     /tmp/cc8sHRun.s:401    .text.pbuf_alloc_reference:00000000 $t
     /tmp/cc8sHRun.s:407    .text.pbuf_alloc_reference:00000000 pbuf_alloc_reference
     /tmp/cc8sHRun.s:490    .text.pbuf_alloc_reference:00000044 $d
     /tmp/cc8sHRun.s:497    .text.pbuf_alloced_custom:00000000 $t
     /tmp/cc8sHRun.s:503    .text.pbuf_alloced_custom:00000000 pbuf_alloced_custom
     /tmp/cc8sHRun.s:584    .text.pbuf_add_header:00000000 $t
     /tmp/cc8sHRun.s:590    .text.pbuf_add_header:00000000 pbuf_add_header
     /tmp/cc8sHRun.s:614    .text.pbuf_add_header_force:00000000 $t
     /tmp/cc8sHRun.s:620    .text.pbuf_add_header_force:00000000 pbuf_add_header_force
     /tmp/cc8sHRun.s:644    .rodata.pbuf_remove_header.str1.4:00000000 $d
     /tmp/cc8sHRun.s:648    .text.pbuf_remove_header:00000000 $t
     /tmp/cc8sHRun.s:654    .text.pbuf_remove_header:00000000 pbuf_remove_header
     /tmp/cc8sHRun.s:775    .text.pbuf_remove_header:0000005c $d
     /tmp/cc8sHRun.s:783    .text.pbuf_header_impl:00000000 $t
     /tmp/cc8sHRun.s:788    .text.pbuf_header_impl:00000000 pbuf_header_impl
     /tmp/cc8sHRun.s:826    .text.pbuf_header:00000000 $t
     /tmp/cc8sHRun.s:832    .text.pbuf_header:00000000 pbuf_header
     /tmp/cc8sHRun.s:856    .text.pbuf_header_force:00000000 $t
     /tmp/cc8sHRun.s:862    .text.pbuf_header_force:00000000 pbuf_header_force
     /tmp/cc8sHRun.s:886    .rodata.pbuf_free.str1.4:00000000 $d
     /tmp/cc8sHRun.s:896    .text.pbuf_free:00000000 $t
     /tmp/cc8sHRun.s:902    .text.pbuf_free:00000000 pbuf_free
     /tmp/cc8sHRun.s:1119   .text.pbuf_free:000000ac $d
     /tmp/cc8sHRun.s:1130   .rodata.pbuf_alloc.str1.4:00000000 $d
     /tmp/cc8sHRun.s:1144   .text.pbuf_alloc:00000000 $t
     /tmp/cc8sHRun.s:1150   .text.pbuf_alloc:00000000 pbuf_alloc
     /tmp/cc8sHRun.s:1462   .text.pbuf_alloc:00000144 $d
     /tmp/cc8sHRun.s:1472   .rodata.pbuf_realloc.str1.4:00000000 $d
     /tmp/cc8sHRun.s:1482   .text.pbuf_realloc:00000000 $t
     /tmp/cc8sHRun.s:1488   .text.pbuf_realloc:00000000 pbuf_realloc
     /tmp/cc8sHRun.s:1654   .text.pbuf_realloc:00000094 $d
     /tmp/cc8sHRun.s:1663   .text.pbuf_free_header:00000000 $t
     /tmp/cc8sHRun.s:1669   .text.pbuf_free_header:00000000 pbuf_free_header
     /tmp/cc8sHRun.s:1758   .text.pbuf_clen:00000000 $t
     /tmp/cc8sHRun.s:1764   .text.pbuf_clen:00000000 pbuf_clen
     /tmp/cc8sHRun.s:1806   .rodata.pbuf_ref.str1.4:00000000 $d
     /tmp/cc8sHRun.s:1810   .text.pbuf_ref:00000000 $t
     /tmp/cc8sHRun.s:1816   .text.pbuf_ref:00000000 pbuf_ref
     /tmp/cc8sHRun.s:1876   .text.pbuf_ref:00000024 $d
ARM GAS  /tmp/cc8sHRun.s 			page 116


     /tmp/cc8sHRun.s:1883   .rodata.pbuf_cat.str1.4:00000000 $d
     /tmp/cc8sHRun.s:1894   .text.pbuf_cat:00000000 $t
     /tmp/cc8sHRun.s:1900   .text.pbuf_cat:00000000 pbuf_cat
     /tmp/cc8sHRun.s:2020   .text.pbuf_cat:00000064 $d
     /tmp/cc8sHRun.s:2029   .text.pbuf_chain:00000000 $t
     /tmp/cc8sHRun.s:2035   .text.pbuf_chain:00000000 pbuf_chain
     /tmp/cc8sHRun.s:2064   .rodata.pbuf_dechain.str1.4:00000000 $d
     /tmp/cc8sHRun.s:2071   .text.pbuf_dechain:00000000 $t
     /tmp/cc8sHRun.s:2077   .text.pbuf_dechain:00000000 pbuf_dechain
     /tmp/cc8sHRun.s:2199   .text.pbuf_dechain:00000064 $d
     /tmp/cc8sHRun.s:2207   .rodata.pbuf_copy.str1.4:00000000 $d
     /tmp/cc8sHRun.s:2223   .text.pbuf_copy:00000000 $t
     /tmp/cc8sHRun.s:2229   .text.pbuf_copy:00000000 pbuf_copy
     /tmp/cc8sHRun.s:2494   .text.pbuf_copy:0000010c $d
     /tmp/cc8sHRun.s:2505   .rodata.pbuf_copy_partial.str1.4:00000000 $d
     /tmp/cc8sHRun.s:2512   .text.pbuf_copy_partial:00000000 $t
     /tmp/cc8sHRun.s:2518   .text.pbuf_copy_partial:00000000 pbuf_copy_partial
     /tmp/cc8sHRun.s:2692   .text.pbuf_copy_partial:0000008c $d
     /tmp/cc8sHRun.s:2700   .rodata.pbuf_get_contiguous.str1.4:00000000 $d
     /tmp/cc8sHRun.s:2707   .text.pbuf_get_contiguous:00000000 $t
     /tmp/cc8sHRun.s:2713   .text.pbuf_get_contiguous:00000000 pbuf_get_contiguous
     /tmp/cc8sHRun.s:2881   .text.pbuf_get_contiguous:00000080 $d
     /tmp/cc8sHRun.s:2889   .text.pbuf_skip:00000000 $t
     /tmp/cc8sHRun.s:2895   .text.pbuf_skip:00000000 pbuf_skip
     /tmp/cc8sHRun.s:2919   .rodata.pbuf_take.str1.4:00000000 $d
     /tmp/cc8sHRun.s:2935   .text.pbuf_take:00000000 $t
     /tmp/cc8sHRun.s:2941   .text.pbuf_take:00000000 pbuf_take
     /tmp/cc8sHRun.s:3133   .text.pbuf_take:000000a4 $d
     /tmp/cc8sHRun.s:3144   .rodata.pbuf_take_at.str1.4:00000000 $d
     /tmp/cc8sHRun.s:3148   .text.pbuf_take_at:00000000 $t
     /tmp/cc8sHRun.s:3154   .text.pbuf_take_at:00000000 pbuf_take_at
     /tmp/cc8sHRun.s:3304   .text.pbuf_take_at:00000078 $d
     /tmp/cc8sHRun.s:3311   .rodata.pbuf_clone.str1.4:00000000 $d
     /tmp/cc8sHRun.s:3315   .text.pbuf_clone:00000000 $t
     /tmp/cc8sHRun.s:3321   .text.pbuf_clone:00000000 pbuf_clone
     /tmp/cc8sHRun.s:3383   .text.pbuf_clone:0000002c $d
     /tmp/cc8sHRun.s:3390   .text.pbuf_coalesce:00000000 $t
     /tmp/cc8sHRun.s:3396   .text.pbuf_coalesce:00000000 pbuf_coalesce
     /tmp/cc8sHRun.s:3450   .text.pbuf_try_get_at:00000000 $t
     /tmp/cc8sHRun.s:3456   .text.pbuf_try_get_at:00000000 pbuf_try_get_at
     /tmp/cc8sHRun.s:3521   .text.pbuf_get_at:00000000 $t
     /tmp/cc8sHRun.s:3527   .text.pbuf_get_at:00000000 pbuf_get_at
     /tmp/cc8sHRun.s:3567   .text.pbuf_put_at:00000000 $t
     /tmp/cc8sHRun.s:3573   .text.pbuf_put_at:00000000 pbuf_put_at
     /tmp/cc8sHRun.s:3625   .text.pbuf_memcmp:00000000 $t
     /tmp/cc8sHRun.s:3631   .text.pbuf_memcmp:00000000 pbuf_memcmp
     /tmp/cc8sHRun.s:3754   .text.pbuf_memfind:00000000 $t
     /tmp/cc8sHRun.s:3760   .text.pbuf_memfind:00000000 pbuf_memfind
     /tmp/cc8sHRun.s:3849   .text.pbuf_strstr:00000000 $t
     /tmp/cc8sHRun.s:3855   .text.pbuf_strstr:00000000 pbuf_strstr
     /tmp/cc8sHRun.s:3951   .bss.pbuf_free_ooseq_pending:00000000 $d

UNDEFINED SYMBOLS
printf
tcp_free_ooseq
tcp_active_pcbs
memp_malloc
ARM GAS  /tmp/cc8sHRun.s 			page 117


mem_free
memp_free
mem_malloc
mem_trim
memcpy
strlen
