ARM GAS  /tmp/ccB1qwLo.s 			page 1


   1              		.cpu cortex-m7
   2              		.arch armv7e-m
   3              		.fpu fpv5-d16
   4              		.eabi_attribute 28, 1
   5              		.eabi_attribute 20, 1
   6              		.eabi_attribute 21, 1
   7              		.eabi_attribute 23, 3
   8              		.eabi_attribute 24, 1
   9              		.eabi_attribute 25, 1
  10              		.eabi_attribute 26, 1
  11              		.eabi_attribute 30, 1
  12              		.eabi_attribute 34, 1
  13              		.eabi_attribute 18, 4
  14              		.file	"slipif.c"
  15              		.text
  16              	.Ltext0:
  17              		.cfi_sections	.debug_frame
  18              		.file 1 "../../Middlewares/Third_Party/LwIP/src/netif/slipif.c"
  19              		.section	.rodata.slipif_output.str1.4,"aMS",%progbits,1
  20              		.align	2
  21              	.LC0:
  22 0000 2E2E2F2E 		.ascii	"../../Middlewares/Third_Party/LwIP/src/netif/slipif"
  22      2E2F4D69 
  22      64646C65 
  22      77617265 
  22      732F5468 
  23 0033 2E6300   		.ascii	".c\000"
  24 0036 0000     		.align	2
  25              	.LC1:
  26 0038 6E657469 		.ascii	"netif != NULL\000"
  26      6620213D 
  26      204E554C 
  26      4C00
  27 0046 0000     		.align	2
  28              	.LC2:
  29 0048 41737365 		.ascii	"Assertion \"%s\" failed at line %d in %s\012\000"
  29      7274696F 
  29      6E202225 
  29      73222066 
  29      61696C65 
  30              		.align	2
  31              	.LC3:
  32 0070 6E657469 		.ascii	"netif->state != NULL\000"
  32      662D3E73 
  32      74617465 
  32      20213D20 
  32      4E554C4C 
  33 0085 000000   		.align	2
  34              	.LC4:
  35 0088 7020213D 		.ascii	"p != NULL\000"
  35      204E554C 
  35      4C00
  36              		.section	.text.slipif_output,"ax",%progbits
  37              		.align	1
  38              		.syntax unified
  39              		.thumb
  40              		.thumb_func
ARM GAS  /tmp/ccB1qwLo.s 			page 2


  42              	slipif_output:
  43              	.LVL0:
  44              	.LFB170:
   1:../../Middlewares/Third_Party/LwIP/src/netif/slipif.c **** /**
   2:../../Middlewares/Third_Party/LwIP/src/netif/slipif.c ****  * @file
   3:../../Middlewares/Third_Party/LwIP/src/netif/slipif.c ****  * SLIP Interface
   4:../../Middlewares/Third_Party/LwIP/src/netif/slipif.c ****  *
   5:../../Middlewares/Third_Party/LwIP/src/netif/slipif.c ****  */
   6:../../Middlewares/Third_Party/LwIP/src/netif/slipif.c **** 
   7:../../Middlewares/Third_Party/LwIP/src/netif/slipif.c **** /*
   8:../../Middlewares/Third_Party/LwIP/src/netif/slipif.c ****  * Copyright (c) 2001-2004 Swedish Institute of Computer Science.
   9:../../Middlewares/Third_Party/LwIP/src/netif/slipif.c ****  * All rights reserved.
  10:../../Middlewares/Third_Party/LwIP/src/netif/slipif.c ****  *
  11:../../Middlewares/Third_Party/LwIP/src/netif/slipif.c ****  * Redistribution and use in source and binary forms, with or without
  12:../../Middlewares/Third_Party/LwIP/src/netif/slipif.c ****  * modification, are permitted provided that the following conditions
  13:../../Middlewares/Third_Party/LwIP/src/netif/slipif.c ****  * are met:
  14:../../Middlewares/Third_Party/LwIP/src/netif/slipif.c ****  * 1. Redistributions of source code must retain the above copyright
  15:../../Middlewares/Third_Party/LwIP/src/netif/slipif.c ****  *    notice, this list of conditions and the following disclaimer.
  16:../../Middlewares/Third_Party/LwIP/src/netif/slipif.c ****  * 2. Redistributions in binary form must reproduce the above copyright
  17:../../Middlewares/Third_Party/LwIP/src/netif/slipif.c ****  *    notice, this list of conditions and the following disclaimer in the
  18:../../Middlewares/Third_Party/LwIP/src/netif/slipif.c ****  *    documentation and/or other materials provided with the distribution.
  19:../../Middlewares/Third_Party/LwIP/src/netif/slipif.c ****  * 3. Neither the name of the Institute nor the names of its contributors
  20:../../Middlewares/Third_Party/LwIP/src/netif/slipif.c ****  *    may be used to endorse or promote products derived from this software
  21:../../Middlewares/Third_Party/LwIP/src/netif/slipif.c ****  *    without specific prior written permission.
  22:../../Middlewares/Third_Party/LwIP/src/netif/slipif.c ****  *
  23:../../Middlewares/Third_Party/LwIP/src/netif/slipif.c ****  * THIS SOFTWARE IS PROVIDED BY THE INSTITUTE AND CONTRIBUTORS ``AS IS'' AND
  24:../../Middlewares/Third_Party/LwIP/src/netif/slipif.c ****  * ANY EXPRESS OR IMPLIED WARRANTIES, INCLUDING, BUT NOT LIMITED TO, THE
  25:../../Middlewares/Third_Party/LwIP/src/netif/slipif.c ****  * IMPLIED WARRANTIES OF MERCHANTABILITY AND FITNESS FOR A PARTICULAR PURPOSE
  26:../../Middlewares/Third_Party/LwIP/src/netif/slipif.c ****  * ARE DISCLAIMED.  IN NO EVENT SHALL THE INSTITUTE OR CONTRIBUTORS BE LIABLE
  27:../../Middlewares/Third_Party/LwIP/src/netif/slipif.c ****  * FOR ANY DIRECT, INDIRECT, INCIDENTAL, SPECIAL, EXEMPLARY, OR CONSEQUENTIAL
  28:../../Middlewares/Third_Party/LwIP/src/netif/slipif.c ****  * DAMAGES (INCLUDING, BUT NOT LIMITED TO, PROCUREMENT OF SUBSTITUTE GOODS
  29:../../Middlewares/Third_Party/LwIP/src/netif/slipif.c ****  * OR SERVICES; LOSS OF USE, DATA, OR PROFITS; OR BUSINESS INTERRUPTION)
  30:../../Middlewares/Third_Party/LwIP/src/netif/slipif.c ****  * HOWEVER CAUSED AND ON ANY THEORY OF LIABILITY, WHETHER IN CONTRACT, STRICT
  31:../../Middlewares/Third_Party/LwIP/src/netif/slipif.c ****  * LIABILITY, OR TORT (INCLUDING NEGLIGENCE OR OTHERWISE) ARISING IN ANY WAY
  32:../../Middlewares/Third_Party/LwIP/src/netif/slipif.c ****  * OUT OF THE USE OF THIS SOFTWARE, EVEN IF ADVISED OF THE POSSIBILITY OF
  33:../../Middlewares/Third_Party/LwIP/src/netif/slipif.c ****  * SUCH DAMAGE.
  34:../../Middlewares/Third_Party/LwIP/src/netif/slipif.c ****  *
  35:../../Middlewares/Third_Party/LwIP/src/netif/slipif.c ****  * This file is built upon the file: src/arch/rtxc/netif/sioslip.c
  36:../../Middlewares/Third_Party/LwIP/src/netif/slipif.c ****  *
  37:../../Middlewares/Third_Party/LwIP/src/netif/slipif.c ****  * Author: Magnus Ivarsson <magnus.ivarsson(at)volvo.com>
  38:../../Middlewares/Third_Party/LwIP/src/netif/slipif.c ****  *         Simon Goldschmidt
  39:../../Middlewares/Third_Party/LwIP/src/netif/slipif.c ****  */
  40:../../Middlewares/Third_Party/LwIP/src/netif/slipif.c **** 
  41:../../Middlewares/Third_Party/LwIP/src/netif/slipif.c **** 
  42:../../Middlewares/Third_Party/LwIP/src/netif/slipif.c **** /**
  43:../../Middlewares/Third_Party/LwIP/src/netif/slipif.c ****  * @defgroup slipif SLIP
  44:../../Middlewares/Third_Party/LwIP/src/netif/slipif.c ****  * @ingroup netifs
  45:../../Middlewares/Third_Party/LwIP/src/netif/slipif.c ****  *
  46:../../Middlewares/Third_Party/LwIP/src/netif/slipif.c ****  * This is an arch independent SLIP netif. The specific serial hooks must be
  47:../../Middlewares/Third_Party/LwIP/src/netif/slipif.c ****  * provided by another file. They are sio_open, sio_read/sio_tryread and sio_send
  48:../../Middlewares/Third_Party/LwIP/src/netif/slipif.c ****  *
  49:../../Middlewares/Third_Party/LwIP/src/netif/slipif.c ****  * Usage: This netif can be used in three ways:\n
  50:../../Middlewares/Third_Party/LwIP/src/netif/slipif.c ****  *        1) For NO_SYS==0, an RX thread can be used which blocks on sio_read()
  51:../../Middlewares/Third_Party/LwIP/src/netif/slipif.c ****  *           until data is received.\n
  52:../../Middlewares/Third_Party/LwIP/src/netif/slipif.c ****  *        2) In your main loop, call slipif_poll() to check for new RX bytes,
  53:../../Middlewares/Third_Party/LwIP/src/netif/slipif.c ****  *           completed packets are fed into netif->input().\n
  54:../../Middlewares/Third_Party/LwIP/src/netif/slipif.c ****  *        3) Call slipif_received_byte[s]() from your serial RX ISR and
ARM GAS  /tmp/ccB1qwLo.s 			page 3


  55:../../Middlewares/Third_Party/LwIP/src/netif/slipif.c ****  *           slipif_process_rxqueue() from your main loop. ISR level decodes
  56:../../Middlewares/Third_Party/LwIP/src/netif/slipif.c ****  *           packets and puts completed packets on a queue which is fed into
  57:../../Middlewares/Third_Party/LwIP/src/netif/slipif.c ****  *           the stack from the main loop (needs SYS_LIGHTWEIGHT_PROT for
  58:../../Middlewares/Third_Party/LwIP/src/netif/slipif.c ****  *           pbuf_alloc to work on ISR level!).
  59:../../Middlewares/Third_Party/LwIP/src/netif/slipif.c ****  *
  60:../../Middlewares/Third_Party/LwIP/src/netif/slipif.c ****  */
  61:../../Middlewares/Third_Party/LwIP/src/netif/slipif.c **** 
  62:../../Middlewares/Third_Party/LwIP/src/netif/slipif.c **** #include "netif/slipif.h"
  63:../../Middlewares/Third_Party/LwIP/src/netif/slipif.c **** #include "lwip/opt.h"
  64:../../Middlewares/Third_Party/LwIP/src/netif/slipif.c **** 
  65:../../Middlewares/Third_Party/LwIP/src/netif/slipif.c **** #include "lwip/def.h"
  66:../../Middlewares/Third_Party/LwIP/src/netif/slipif.c **** #include "lwip/pbuf.h"
  67:../../Middlewares/Third_Party/LwIP/src/netif/slipif.c **** #include "lwip/stats.h"
  68:../../Middlewares/Third_Party/LwIP/src/netif/slipif.c **** #include "lwip/snmp.h"
  69:../../Middlewares/Third_Party/LwIP/src/netif/slipif.c **** #include "lwip/sys.h"
  70:../../Middlewares/Third_Party/LwIP/src/netif/slipif.c **** #include "lwip/sio.h"
  71:../../Middlewares/Third_Party/LwIP/src/netif/slipif.c **** 
  72:../../Middlewares/Third_Party/LwIP/src/netif/slipif.c **** #define SLIP_END     0xC0 /* 0300: start and end of every packet */
  73:../../Middlewares/Third_Party/LwIP/src/netif/slipif.c **** #define SLIP_ESC     0xDB /* 0333: escape start (one byte escaped data follows) */
  74:../../Middlewares/Third_Party/LwIP/src/netif/slipif.c **** #define SLIP_ESC_END 0xDC /* 0334: following escape: original byte is 0xC0 (END) */
  75:../../Middlewares/Third_Party/LwIP/src/netif/slipif.c **** #define SLIP_ESC_ESC 0xDD /* 0335: following escape: original byte is 0xDB (ESC) */
  76:../../Middlewares/Third_Party/LwIP/src/netif/slipif.c **** 
  77:../../Middlewares/Third_Party/LwIP/src/netif/slipif.c **** /** Maximum packet size that is received by this netif */
  78:../../Middlewares/Third_Party/LwIP/src/netif/slipif.c **** #ifndef SLIP_MAX_SIZE
  79:../../Middlewares/Third_Party/LwIP/src/netif/slipif.c **** #define SLIP_MAX_SIZE 1500
  80:../../Middlewares/Third_Party/LwIP/src/netif/slipif.c **** #endif
  81:../../Middlewares/Third_Party/LwIP/src/netif/slipif.c **** 
  82:../../Middlewares/Third_Party/LwIP/src/netif/slipif.c **** /** Define this to the interface speed for SNMP
  83:../../Middlewares/Third_Party/LwIP/src/netif/slipif.c ****  * (sio_fd is the sio_fd_t returned by sio_open).
  84:../../Middlewares/Third_Party/LwIP/src/netif/slipif.c ****  * The default value of zero means 'unknown'.
  85:../../Middlewares/Third_Party/LwIP/src/netif/slipif.c ****  */
  86:../../Middlewares/Third_Party/LwIP/src/netif/slipif.c **** #ifndef SLIP_SIO_SPEED
  87:../../Middlewares/Third_Party/LwIP/src/netif/slipif.c **** #define SLIP_SIO_SPEED(sio_fd) 0
  88:../../Middlewares/Third_Party/LwIP/src/netif/slipif.c **** #endif
  89:../../Middlewares/Third_Party/LwIP/src/netif/slipif.c **** 
  90:../../Middlewares/Third_Party/LwIP/src/netif/slipif.c **** enum slipif_recv_state {
  91:../../Middlewares/Third_Party/LwIP/src/netif/slipif.c ****   SLIP_RECV_NORMAL,
  92:../../Middlewares/Third_Party/LwIP/src/netif/slipif.c ****   SLIP_RECV_ESCAPE
  93:../../Middlewares/Third_Party/LwIP/src/netif/slipif.c **** };
  94:../../Middlewares/Third_Party/LwIP/src/netif/slipif.c **** 
  95:../../Middlewares/Third_Party/LwIP/src/netif/slipif.c **** struct slipif_priv {
  96:../../Middlewares/Third_Party/LwIP/src/netif/slipif.c ****   sio_fd_t sd;
  97:../../Middlewares/Third_Party/LwIP/src/netif/slipif.c ****   /* q is the whole pbuf chain for a packet, p is the current pbuf in the chain */
  98:../../Middlewares/Third_Party/LwIP/src/netif/slipif.c ****   struct pbuf *p, *q;
  99:../../Middlewares/Third_Party/LwIP/src/netif/slipif.c ****   u8_t state;
 100:../../Middlewares/Third_Party/LwIP/src/netif/slipif.c ****   u16_t i, recved;
 101:../../Middlewares/Third_Party/LwIP/src/netif/slipif.c **** #if SLIP_RX_FROM_ISR
 102:../../Middlewares/Third_Party/LwIP/src/netif/slipif.c ****   struct pbuf *rxpackets;
 103:../../Middlewares/Third_Party/LwIP/src/netif/slipif.c **** #endif
 104:../../Middlewares/Third_Party/LwIP/src/netif/slipif.c **** };
 105:../../Middlewares/Third_Party/LwIP/src/netif/slipif.c **** 
 106:../../Middlewares/Third_Party/LwIP/src/netif/slipif.c **** /**
 107:../../Middlewares/Third_Party/LwIP/src/netif/slipif.c ****  * Send a pbuf doing the necessary SLIP encapsulation
 108:../../Middlewares/Third_Party/LwIP/src/netif/slipif.c ****  *
 109:../../Middlewares/Third_Party/LwIP/src/netif/slipif.c ****  * Uses the serial layer's sio_send()
 110:../../Middlewares/Third_Party/LwIP/src/netif/slipif.c ****  *
 111:../../Middlewares/Third_Party/LwIP/src/netif/slipif.c ****  * @param netif the lwip network interface structure for this slipif
ARM GAS  /tmp/ccB1qwLo.s 			page 4


 112:../../Middlewares/Third_Party/LwIP/src/netif/slipif.c ****  * @param p the pbuf chain packet to send
 113:../../Middlewares/Third_Party/LwIP/src/netif/slipif.c ****  * @return always returns ERR_OK since the serial layer does not provide return values
 114:../../Middlewares/Third_Party/LwIP/src/netif/slipif.c ****  */
 115:../../Middlewares/Third_Party/LwIP/src/netif/slipif.c **** static err_t
 116:../../Middlewares/Third_Party/LwIP/src/netif/slipif.c **** slipif_output(struct netif *netif, struct pbuf *p)
 117:../../Middlewares/Third_Party/LwIP/src/netif/slipif.c **** {
  45              		.loc 1 117 1 view -0
  46              		.cfi_startproc
  47              		@ args = 0, pretend = 0, frame = 0
  48              		@ frame_needed = 0, uses_anonymous_args = 0
  49              		.loc 1 117 1 is_stmt 0 view .LVU1
  50 0000 70B5     		push	{r4, r5, r6, lr}
  51              	.LCFI0:
  52              		.cfi_def_cfa_offset 16
  53              		.cfi_offset 4, -16
  54              		.cfi_offset 5, -12
  55              		.cfi_offset 6, -8
  56              		.cfi_offset 14, -4
  57 0002 0D46     		mov	r5, r1
 118:../../Middlewares/Third_Party/LwIP/src/netif/slipif.c ****   struct slipif_priv *priv;
  58              		.loc 1 118 3 is_stmt 1 view .LVU2
 119:../../Middlewares/Third_Party/LwIP/src/netif/slipif.c ****   struct pbuf *q;
  59              		.loc 1 119 3 view .LVU3
 120:../../Middlewares/Third_Party/LwIP/src/netif/slipif.c ****   u16_t i;
  60              		.loc 1 120 3 view .LVU4
 121:../../Middlewares/Third_Party/LwIP/src/netif/slipif.c ****   u8_t c;
  61              		.loc 1 121 3 view .LVU5
 122:../../Middlewares/Third_Party/LwIP/src/netif/slipif.c **** 
 123:../../Middlewares/Third_Party/LwIP/src/netif/slipif.c ****   LWIP_ASSERT("netif != NULL", (netif != NULL));
  62              		.loc 1 123 3 view .LVU6
  63              		.loc 1 123 3 view .LVU7
  64 0004 0446     		mov	r4, r0
  65 0006 40B1     		cbz	r0, .L15
  66              	.LVL1:
  67              	.L2:
  68              		.loc 1 123 3 discriminator 3 view .LVU8
  69              		.loc 1 123 3 discriminator 3 view .LVU9
 124:../../Middlewares/Third_Party/LwIP/src/netif/slipif.c ****   LWIP_ASSERT("netif->state != NULL", (netif->state != NULL));
  70              		.loc 1 124 3 view .LVU10
  71              		.loc 1 124 3 view .LVU11
  72 0008 236A     		ldr	r3, [r4, #32]
  73 000a 6BB1     		cbz	r3, .L16
  74              	.L3:
  75              		.loc 1 124 3 discriminator 3 view .LVU12
  76              		.loc 1 124 3 discriminator 3 view .LVU13
 125:../../Middlewares/Third_Party/LwIP/src/netif/slipif.c ****   LWIP_ASSERT("p != NULL", (p != NULL));
  77              		.loc 1 125 3 view .LVU14
  78              		.loc 1 125 3 view .LVU15
  79 000c 9DB1     		cbz	r5, .L17
  80              	.L4:
  81              		.loc 1 125 3 discriminator 3 view .LVU16
  82              		.loc 1 125 3 discriminator 3 view .LVU17
 126:../../Middlewares/Third_Party/LwIP/src/netif/slipif.c **** 
 127:../../Middlewares/Third_Party/LwIP/src/netif/slipif.c ****   LWIP_DEBUGF(SLIP_DEBUG, ("slipif_output: sending %"U16_F" bytes\n", p->tot_len));
  83              		.loc 1 127 83 view .LVU18
 128:../../Middlewares/Third_Party/LwIP/src/netif/slipif.c ****   priv = (struct slipif_priv *)netif->state;
  84              		.loc 1 128 3 view .LVU19
ARM GAS  /tmp/ccB1qwLo.s 			page 5


  85              		.loc 1 128 8 is_stmt 0 view .LVU20
  86 000e 266A     		ldr	r6, [r4, #32]
  87              	.LVL2:
 129:../../Middlewares/Third_Party/LwIP/src/netif/slipif.c **** 
 130:../../Middlewares/Third_Party/LwIP/src/netif/slipif.c ****   /* Send pbuf out on the serial I/O device. */
 131:../../Middlewares/Third_Party/LwIP/src/netif/slipif.c ****   /* Start with packet delimiter. */
 132:../../Middlewares/Third_Party/LwIP/src/netif/slipif.c ****   sio_send(SLIP_END, priv->sd);
  88              		.loc 1 132 3 is_stmt 1 view .LVU21
  89 0010 3168     		ldr	r1, [r6]
  90 0012 C020     		movs	r0, #192
  91 0014 FFF7FEFF 		bl	sio_send
  92              	.LVL3:
 133:../../Middlewares/Third_Party/LwIP/src/netif/slipif.c **** 
 134:../../Middlewares/Third_Party/LwIP/src/netif/slipif.c ****   for (q = p; q != NULL; q = q->next) {
  93              		.loc 1 134 3 view .LVU22
  94              		.loc 1 134 3 is_stmt 0 view .LVU23
  95 0018 35E0     		b	.L5
  96              	.LVL4:
  97              	.L15:
 123:../../Middlewares/Third_Party/LwIP/src/netif/slipif.c ****   LWIP_ASSERT("netif->state != NULL", (netif->state != NULL));
  98              		.loc 1 123 3 is_stmt 1 discriminator 1 view .LVU24
 123:../../Middlewares/Third_Party/LwIP/src/netif/slipif.c ****   LWIP_ASSERT("netif->state != NULL", (netif->state != NULL));
  99              		.loc 1 123 3 discriminator 1 view .LVU25
 100 001a 1F4B     		ldr	r3, .L20
 101 001c 7B22     		movs	r2, #123
 102 001e 1F49     		ldr	r1, .L20+4
 103              	.LVL5:
 123:../../Middlewares/Third_Party/LwIP/src/netif/slipif.c ****   LWIP_ASSERT("netif->state != NULL", (netif->state != NULL));
 104              		.loc 1 123 3 is_stmt 0 discriminator 1 view .LVU26
 105 0020 1F48     		ldr	r0, .L20+8
 106              	.LVL6:
 123:../../Middlewares/Third_Party/LwIP/src/netif/slipif.c ****   LWIP_ASSERT("netif->state != NULL", (netif->state != NULL));
 107              		.loc 1 123 3 discriminator 1 view .LVU27
 108 0022 FFF7FEFF 		bl	printf
 109              	.LVL7:
 110 0026 EFE7     		b	.L2
 111              	.L16:
 124:../../Middlewares/Third_Party/LwIP/src/netif/slipif.c ****   LWIP_ASSERT("p != NULL", (p != NULL));
 112              		.loc 1 124 3 is_stmt 1 discriminator 1 view .LVU28
 124:../../Middlewares/Third_Party/LwIP/src/netif/slipif.c ****   LWIP_ASSERT("p != NULL", (p != NULL));
 113              		.loc 1 124 3 discriminator 1 view .LVU29
 114 0028 1B4B     		ldr	r3, .L20
 115 002a 7C22     		movs	r2, #124
 116 002c 1D49     		ldr	r1, .L20+12
 117 002e 1C48     		ldr	r0, .L20+8
 118 0030 FFF7FEFF 		bl	printf
 119              	.LVL8:
 120 0034 EAE7     		b	.L3
 121              	.L17:
 125:../../Middlewares/Third_Party/LwIP/src/netif/slipif.c **** 
 122              		.loc 1 125 3 discriminator 1 view .LVU30
 125:../../Middlewares/Third_Party/LwIP/src/netif/slipif.c **** 
 123              		.loc 1 125 3 discriminator 1 view .LVU31
 124 0036 184B     		ldr	r3, .L20
 125 0038 7D22     		movs	r2, #125
 126 003a 1B49     		ldr	r1, .L20+16
 127 003c 1848     		ldr	r0, .L20+8
ARM GAS  /tmp/ccB1qwLo.s 			page 6


 128 003e FFF7FEFF 		bl	printf
 129              	.LVL9:
 130 0042 E4E7     		b	.L4
 131              	.LVL10:
 132              	.L6:
 135:../../Middlewares/Third_Party/LwIP/src/netif/slipif.c ****     for (i = 0; i < q->len; i++) {
 136:../../Middlewares/Third_Party/LwIP/src/netif/slipif.c ****       c = ((u8_t *)q->payload)[i];
 137:../../Middlewares/Third_Party/LwIP/src/netif/slipif.c ****       switch (c) {
 138:../../Middlewares/Third_Party/LwIP/src/netif/slipif.c ****         case SLIP_END:
 139:../../Middlewares/Third_Party/LwIP/src/netif/slipif.c ****           /* need to escape this byte (0xC0 -> 0xDB, 0xDC) */
 140:../../Middlewares/Third_Party/LwIP/src/netif/slipif.c ****           sio_send(SLIP_ESC, priv->sd);
 133              		.loc 1 140 11 view .LVU32
 134 0044 3168     		ldr	r1, [r6]
 135 0046 DB20     		movs	r0, #219
 136              	.LVL11:
 137              		.loc 1 140 11 is_stmt 0 view .LVU33
 138 0048 FFF7FEFF 		bl	sio_send
 139              	.LVL12:
 141:../../Middlewares/Third_Party/LwIP/src/netif/slipif.c ****           sio_send(SLIP_ESC_END, priv->sd);
 140              		.loc 1 141 11 is_stmt 1 view .LVU34
 141 004c 3168     		ldr	r1, [r6]
 142 004e DC20     		movs	r0, #220
 143 0050 FFF7FEFF 		bl	sio_send
 144              	.LVL13:
 142:../../Middlewares/Third_Party/LwIP/src/netif/slipif.c ****           break;
 145              		.loc 1 142 11 view .LVU35
 146              	.L9:
 135:../../Middlewares/Third_Party/LwIP/src/netif/slipif.c ****     for (i = 0; i < q->len; i++) {
 147              		.loc 1 135 30 discriminator 2 view .LVU36
 148 0054 0134     		adds	r4, r4, #1
 149              	.LVL14:
 135:../../Middlewares/Third_Party/LwIP/src/netif/slipif.c ****     for (i = 0; i < q->len; i++) {
 150              		.loc 1 135 30 is_stmt 0 discriminator 2 view .LVU37
 151 0056 A4B2     		uxth	r4, r4
 152              	.LVL15:
 153              	.L11:
 135:../../Middlewares/Third_Party/LwIP/src/netif/slipif.c ****     for (i = 0; i < q->len; i++) {
 154              		.loc 1 135 19 is_stmt 1 discriminator 1 view .LVU38
 135:../../Middlewares/Third_Party/LwIP/src/netif/slipif.c ****     for (i = 0; i < q->len; i++) {
 155              		.loc 1 135 22 is_stmt 0 discriminator 1 view .LVU39
 156 0058 6B89     		ldrh	r3, [r5, #10]
 135:../../Middlewares/Third_Party/LwIP/src/netif/slipif.c ****     for (i = 0; i < q->len; i++) {
 157              		.loc 1 135 19 discriminator 1 view .LVU40
 158 005a A342     		cmp	r3, r4
 159 005c 12D9     		bls	.L18
 136:../../Middlewares/Third_Party/LwIP/src/netif/slipif.c ****       switch (c) {
 160              		.loc 1 136 7 is_stmt 1 view .LVU41
 136:../../Middlewares/Third_Party/LwIP/src/netif/slipif.c ****       switch (c) {
 161              		.loc 1 136 21 is_stmt 0 view .LVU42
 162 005e 6B68     		ldr	r3, [r5, #4]
 136:../../Middlewares/Third_Party/LwIP/src/netif/slipif.c ****       switch (c) {
 163              		.loc 1 136 9 view .LVU43
 164 0060 185D     		ldrb	r0, [r3, r4]	@ zero_extendqisi2
 165              	.LVL16:
 137:../../Middlewares/Third_Party/LwIP/src/netif/slipif.c ****         case SLIP_END:
 166              		.loc 1 137 7 is_stmt 1 view .LVU44
 167 0062 C028     		cmp	r0, #192
ARM GAS  /tmp/ccB1qwLo.s 			page 7


 168 0064 EED0     		beq	.L6
 169 0066 DB28     		cmp	r0, #219
 170 0068 03D0     		beq	.L7
 143:../../Middlewares/Third_Party/LwIP/src/netif/slipif.c ****         case SLIP_ESC:
 144:../../Middlewares/Third_Party/LwIP/src/netif/slipif.c ****           /* need to escape this byte (0xDB -> 0xDB, 0xDD) */
 145:../../Middlewares/Third_Party/LwIP/src/netif/slipif.c ****           sio_send(SLIP_ESC, priv->sd);
 146:../../Middlewares/Third_Party/LwIP/src/netif/slipif.c ****           sio_send(SLIP_ESC_ESC, priv->sd);
 147:../../Middlewares/Third_Party/LwIP/src/netif/slipif.c ****           break;
 148:../../Middlewares/Third_Party/LwIP/src/netif/slipif.c ****         default:
 149:../../Middlewares/Third_Party/LwIP/src/netif/slipif.c ****           /* normal byte - no need for escaping */
 150:../../Middlewares/Third_Party/LwIP/src/netif/slipif.c ****           sio_send(c, priv->sd);
 171              		.loc 1 150 11 view .LVU45
 172 006a 3168     		ldr	r1, [r6]
 173 006c FFF7FEFF 		bl	sio_send
 174              	.LVL17:
 151:../../Middlewares/Third_Party/LwIP/src/netif/slipif.c ****           break;
 175              		.loc 1 151 11 view .LVU46
 176 0070 F0E7     		b	.L9
 177              	.LVL18:
 178              	.L7:
 145:../../Middlewares/Third_Party/LwIP/src/netif/slipif.c ****           sio_send(SLIP_ESC_ESC, priv->sd);
 179              		.loc 1 145 11 view .LVU47
 180 0072 3168     		ldr	r1, [r6]
 181 0074 DB20     		movs	r0, #219
 182              	.LVL19:
 145:../../Middlewares/Third_Party/LwIP/src/netif/slipif.c ****           sio_send(SLIP_ESC_ESC, priv->sd);
 183              		.loc 1 145 11 is_stmt 0 view .LVU48
 184 0076 FFF7FEFF 		bl	sio_send
 185              	.LVL20:
 146:../../Middlewares/Third_Party/LwIP/src/netif/slipif.c ****           break;
 186              		.loc 1 146 11 is_stmt 1 view .LVU49
 187 007a 3168     		ldr	r1, [r6]
 188 007c DD20     		movs	r0, #221
 189 007e FFF7FEFF 		bl	sio_send
 190              	.LVL21:
 147:../../Middlewares/Third_Party/LwIP/src/netif/slipif.c ****         default:
 191              		.loc 1 147 11 view .LVU50
 192 0082 E7E7     		b	.L9
 193              	.LVL22:
 194              	.L18:
 134:../../Middlewares/Third_Party/LwIP/src/netif/slipif.c ****     for (i = 0; i < q->len; i++) {
 195              		.loc 1 134 28 discriminator 2 view .LVU51
 196 0084 2D68     		ldr	r5, [r5]
 197              	.LVL23:
 198              	.L5:
 134:../../Middlewares/Third_Party/LwIP/src/netif/slipif.c ****     for (i = 0; i < q->len; i++) {
 199              		.loc 1 134 17 discriminator 1 view .LVU52
 200 0086 0DB1     		cbz	r5, .L19
 135:../../Middlewares/Third_Party/LwIP/src/netif/slipif.c ****       c = ((u8_t *)q->payload)[i];
 201              		.loc 1 135 12 is_stmt 0 view .LVU53
 202 0088 0024     		movs	r4, #0
 203 008a E5E7     		b	.L11
 204              	.L19:
 152:../../Middlewares/Third_Party/LwIP/src/netif/slipif.c ****       }
 153:../../Middlewares/Third_Party/LwIP/src/netif/slipif.c ****     }
 154:../../Middlewares/Third_Party/LwIP/src/netif/slipif.c ****   }
 155:../../Middlewares/Third_Party/LwIP/src/netif/slipif.c ****   /* End with packet delimiter. */
ARM GAS  /tmp/ccB1qwLo.s 			page 8


 156:../../Middlewares/Third_Party/LwIP/src/netif/slipif.c ****   sio_send(SLIP_END, priv->sd);
 205              		.loc 1 156 3 is_stmt 1 view .LVU54
 206 008c 3168     		ldr	r1, [r6]
 207 008e C020     		movs	r0, #192
 208 0090 FFF7FEFF 		bl	sio_send
 209              	.LVL24:
 157:../../Middlewares/Third_Party/LwIP/src/netif/slipif.c ****   return ERR_OK;
 210              		.loc 1 157 3 view .LVU55
 158:../../Middlewares/Third_Party/LwIP/src/netif/slipif.c **** }
 211              		.loc 1 158 1 is_stmt 0 view .LVU56
 212 0094 0020     		movs	r0, #0
 213 0096 70BD     		pop	{r4, r5, r6, pc}
 214              	.LVL25:
 215              	.L21:
 216              		.loc 1 158 1 view .LVU57
 217              		.align	2
 218              	.L20:
 219 0098 00000000 		.word	.LC0
 220 009c 38000000 		.word	.LC1
 221 00a0 48000000 		.word	.LC2
 222 00a4 70000000 		.word	.LC3
 223 00a8 88000000 		.word	.LC4
 224              		.cfi_endproc
 225              	.LFE170:
 227              		.section	.text.slipif_output_v4,"ax",%progbits
 228              		.align	1
 229              		.syntax unified
 230              		.thumb
 231              		.thumb_func
 233              	slipif_output_v4:
 234              	.LVL26:
 235              	.LFB171:
 159:../../Middlewares/Third_Party/LwIP/src/netif/slipif.c **** 
 160:../../Middlewares/Third_Party/LwIP/src/netif/slipif.c **** #if LWIP_IPV4
 161:../../Middlewares/Third_Party/LwIP/src/netif/slipif.c **** /**
 162:../../Middlewares/Third_Party/LwIP/src/netif/slipif.c ****  * Send a pbuf doing the necessary SLIP encapsulation
 163:../../Middlewares/Third_Party/LwIP/src/netif/slipif.c ****  *
 164:../../Middlewares/Third_Party/LwIP/src/netif/slipif.c ****  * Uses the serial layer's sio_send()
 165:../../Middlewares/Third_Party/LwIP/src/netif/slipif.c ****  *
 166:../../Middlewares/Third_Party/LwIP/src/netif/slipif.c ****  * @param netif the lwip network interface structure for this slipif
 167:../../Middlewares/Third_Party/LwIP/src/netif/slipif.c ****  * @param p the pbuf chain packet to send
 168:../../Middlewares/Third_Party/LwIP/src/netif/slipif.c ****  * @param ipaddr the ip address to send the packet to (not used for slipif)
 169:../../Middlewares/Third_Party/LwIP/src/netif/slipif.c ****  * @return always returns ERR_OK since the serial layer does not provide return values
 170:../../Middlewares/Third_Party/LwIP/src/netif/slipif.c ****  */
 171:../../Middlewares/Third_Party/LwIP/src/netif/slipif.c **** static err_t
 172:../../Middlewares/Third_Party/LwIP/src/netif/slipif.c **** slipif_output_v4(struct netif *netif, struct pbuf *p, const ip4_addr_t *ipaddr)
 173:../../Middlewares/Third_Party/LwIP/src/netif/slipif.c **** {
 236              		.loc 1 173 1 is_stmt 1 view -0
 237              		.cfi_startproc
 238              		@ args = 0, pretend = 0, frame = 0
 239              		@ frame_needed = 0, uses_anonymous_args = 0
 240              		.loc 1 173 1 is_stmt 0 view .LVU59
 241 0000 08B5     		push	{r3, lr}
 242              	.LCFI1:
 243              		.cfi_def_cfa_offset 8
 244              		.cfi_offset 3, -8
 245              		.cfi_offset 14, -4
ARM GAS  /tmp/ccB1qwLo.s 			page 9


 174:../../Middlewares/Third_Party/LwIP/src/netif/slipif.c ****   LWIP_UNUSED_ARG(ipaddr);
 246              		.loc 1 174 3 is_stmt 1 view .LVU60
 175:../../Middlewares/Third_Party/LwIP/src/netif/slipif.c ****   return slipif_output(netif, p);
 247              		.loc 1 175 3 view .LVU61
 248              		.loc 1 175 10 is_stmt 0 view .LVU62
 249 0002 FFF7FEFF 		bl	slipif_output
 250              	.LVL27:
 176:../../Middlewares/Third_Party/LwIP/src/netif/slipif.c **** }
 251              		.loc 1 176 1 view .LVU63
 252 0006 08BD     		pop	{r3, pc}
 253              		.cfi_endproc
 254              	.LFE171:
 256              		.section	.text.slipif_rxbyte,"ax",%progbits
 257              		.align	1
 258              		.syntax unified
 259              		.thumb
 260              		.thumb_func
 262              	slipif_rxbyte:
 263              	.LVL28:
 264              	.LFB172:
 177:../../Middlewares/Third_Party/LwIP/src/netif/slipif.c **** #endif /* LWIP_IPV4 */
 178:../../Middlewares/Third_Party/LwIP/src/netif/slipif.c **** 
 179:../../Middlewares/Third_Party/LwIP/src/netif/slipif.c **** #if LWIP_IPV6
 180:../../Middlewares/Third_Party/LwIP/src/netif/slipif.c **** /**
 181:../../Middlewares/Third_Party/LwIP/src/netif/slipif.c ****  * Send a pbuf doing the necessary SLIP encapsulation
 182:../../Middlewares/Third_Party/LwIP/src/netif/slipif.c ****  *
 183:../../Middlewares/Third_Party/LwIP/src/netif/slipif.c ****  * Uses the serial layer's sio_send()
 184:../../Middlewares/Third_Party/LwIP/src/netif/slipif.c ****  *
 185:../../Middlewares/Third_Party/LwIP/src/netif/slipif.c ****  * @param netif the lwip network interface structure for this slipif
 186:../../Middlewares/Third_Party/LwIP/src/netif/slipif.c ****  * @param p the pbuf chain packet to send
 187:../../Middlewares/Third_Party/LwIP/src/netif/slipif.c ****  * @param ipaddr the ip address to send the packet to (not used for slipif)
 188:../../Middlewares/Third_Party/LwIP/src/netif/slipif.c ****  * @return always returns ERR_OK since the serial layer does not provide return values
 189:../../Middlewares/Third_Party/LwIP/src/netif/slipif.c ****  */
 190:../../Middlewares/Third_Party/LwIP/src/netif/slipif.c **** static err_t
 191:../../Middlewares/Third_Party/LwIP/src/netif/slipif.c **** slipif_output_v6(struct netif *netif, struct pbuf *p, const ip6_addr_t *ipaddr)
 192:../../Middlewares/Third_Party/LwIP/src/netif/slipif.c **** {
 193:../../Middlewares/Third_Party/LwIP/src/netif/slipif.c ****   LWIP_UNUSED_ARG(ipaddr);
 194:../../Middlewares/Third_Party/LwIP/src/netif/slipif.c ****   return slipif_output(netif, p);
 195:../../Middlewares/Third_Party/LwIP/src/netif/slipif.c **** }
 196:../../Middlewares/Third_Party/LwIP/src/netif/slipif.c **** #endif /* LWIP_IPV6 */
 197:../../Middlewares/Third_Party/LwIP/src/netif/slipif.c **** 
 198:../../Middlewares/Third_Party/LwIP/src/netif/slipif.c **** /**
 199:../../Middlewares/Third_Party/LwIP/src/netif/slipif.c ****  * Handle the incoming SLIP stream character by character
 200:../../Middlewares/Third_Party/LwIP/src/netif/slipif.c ****  *
 201:../../Middlewares/Third_Party/LwIP/src/netif/slipif.c ****  * @param netif the lwip network interface structure for this slipif
 202:../../Middlewares/Third_Party/LwIP/src/netif/slipif.c ****  * @param c received character (multiple calls to this function will
 203:../../Middlewares/Third_Party/LwIP/src/netif/slipif.c ****  *        return a complete packet, NULL is returned before - used for polling)
 204:../../Middlewares/Third_Party/LwIP/src/netif/slipif.c ****  * @return The IP packet when SLIP_END is received
 205:../../Middlewares/Third_Party/LwIP/src/netif/slipif.c ****  */
 206:../../Middlewares/Third_Party/LwIP/src/netif/slipif.c **** static struct pbuf *
 207:../../Middlewares/Third_Party/LwIP/src/netif/slipif.c **** slipif_rxbyte(struct netif *netif, u8_t c)
 208:../../Middlewares/Third_Party/LwIP/src/netif/slipif.c **** {
 265              		.loc 1 208 1 is_stmt 1 view -0
 266              		.cfi_startproc
 267              		@ args = 0, pretend = 0, frame = 0
 268              		@ frame_needed = 0, uses_anonymous_args = 0
 269              		.loc 1 208 1 is_stmt 0 view .LVU65
ARM GAS  /tmp/ccB1qwLo.s 			page 10


 270 0000 38B5     		push	{r3, r4, r5, lr}
 271              	.LCFI2:
 272              		.cfi_def_cfa_offset 16
 273              		.cfi_offset 3, -16
 274              		.cfi_offset 4, -12
 275              		.cfi_offset 5, -8
 276              		.cfi_offset 14, -4
 277 0002 0D46     		mov	r5, r1
 209:../../Middlewares/Third_Party/LwIP/src/netif/slipif.c ****   struct slipif_priv *priv;
 278              		.loc 1 209 3 is_stmt 1 view .LVU66
 210:../../Middlewares/Third_Party/LwIP/src/netif/slipif.c ****   struct pbuf *t;
 279              		.loc 1 210 3 view .LVU67
 211:../../Middlewares/Third_Party/LwIP/src/netif/slipif.c **** 
 212:../../Middlewares/Third_Party/LwIP/src/netif/slipif.c ****   LWIP_ASSERT("netif != NULL", (netif != NULL));
 280              		.loc 1 212 3 view .LVU68
 281              		.loc 1 212 3 view .LVU69
 282 0004 0446     		mov	r4, r0
 283 0006 60B1     		cbz	r0, .L42
 284              	.LVL29:
 285              	.L25:
 286              		.loc 1 212 3 discriminator 3 view .LVU70
 287              		.loc 1 212 3 discriminator 3 view .LVU71
 213:../../Middlewares/Third_Party/LwIP/src/netif/slipif.c ****   LWIP_ASSERT("netif->state != NULL", (netif->state != NULL));
 288              		.loc 1 213 3 view .LVU72
 289              		.loc 1 213 3 view .LVU73
 290 0008 236A     		ldr	r3, [r4, #32]
 291 000a 8BB1     		cbz	r3, .L43
 292              	.L26:
 293              		.loc 1 213 3 discriminator 3 view .LVU74
 294              		.loc 1 213 3 discriminator 3 view .LVU75
 214:../../Middlewares/Third_Party/LwIP/src/netif/slipif.c **** 
 215:../../Middlewares/Third_Party/LwIP/src/netif/slipif.c ****   priv = (struct slipif_priv *)netif->state;
 295              		.loc 1 215 3 view .LVU76
 296              		.loc 1 215 8 is_stmt 0 view .LVU77
 297 000c 246A     		ldr	r4, [r4, #32]
 298              	.LVL30:
 216:../../Middlewares/Third_Party/LwIP/src/netif/slipif.c **** 
 217:../../Middlewares/Third_Party/LwIP/src/netif/slipif.c ****   switch (priv->state) {
 299              		.loc 1 217 3 is_stmt 1 view .LVU78
 300              		.loc 1 217 15 is_stmt 0 view .LVU79
 301 000e 237B     		ldrb	r3, [r4, #12]	@ zero_extendqisi2
 302              		.loc 1 217 3 view .LVU80
 303 0010 ABB1     		cbz	r3, .L27
 304 0012 012B     		cmp	r3, #1
 305 0014 2CD1     		bne	.L29
 218:../../Middlewares/Third_Party/LwIP/src/netif/slipif.c ****     case SLIP_RECV_NORMAL:
 219:../../Middlewares/Third_Party/LwIP/src/netif/slipif.c ****       switch (c) {
 220:../../Middlewares/Third_Party/LwIP/src/netif/slipif.c ****         case SLIP_END:
 221:../../Middlewares/Third_Party/LwIP/src/netif/slipif.c ****           if (priv->recved > 0) {
 222:../../Middlewares/Third_Party/LwIP/src/netif/slipif.c ****             /* Received whole packet. */
 223:../../Middlewares/Third_Party/LwIP/src/netif/slipif.c ****             /* Trim the pbuf to the size of the received packet. */
 224:../../Middlewares/Third_Party/LwIP/src/netif/slipif.c ****             pbuf_realloc(priv->q, priv->recved);
 225:../../Middlewares/Third_Party/LwIP/src/netif/slipif.c **** 
 226:../../Middlewares/Third_Party/LwIP/src/netif/slipif.c ****             LINK_STATS_INC(link.recv);
 227:../../Middlewares/Third_Party/LwIP/src/netif/slipif.c **** 
 228:../../Middlewares/Third_Party/LwIP/src/netif/slipif.c ****             LWIP_DEBUGF(SLIP_DEBUG, ("slipif: Got packet (%"U16_F" bytes)\n", priv->recved));
 229:../../Middlewares/Third_Party/LwIP/src/netif/slipif.c ****             t = priv->q;
ARM GAS  /tmp/ccB1qwLo.s 			page 11


 230:../../Middlewares/Third_Party/LwIP/src/netif/slipif.c ****             priv->p = priv->q = NULL;
 231:../../Middlewares/Third_Party/LwIP/src/netif/slipif.c ****             priv->i = priv->recved = 0;
 232:../../Middlewares/Third_Party/LwIP/src/netif/slipif.c ****             return t;
 233:../../Middlewares/Third_Party/LwIP/src/netif/slipif.c ****           }
 234:../../Middlewares/Third_Party/LwIP/src/netif/slipif.c ****           return NULL;
 235:../../Middlewares/Third_Party/LwIP/src/netif/slipif.c ****         case SLIP_ESC:
 236:../../Middlewares/Third_Party/LwIP/src/netif/slipif.c ****           priv->state = SLIP_RECV_ESCAPE;
 237:../../Middlewares/Third_Party/LwIP/src/netif/slipif.c ****           return NULL;
 238:../../Middlewares/Third_Party/LwIP/src/netif/slipif.c ****         default:
 239:../../Middlewares/Third_Party/LwIP/src/netif/slipif.c ****           break;
 240:../../Middlewares/Third_Party/LwIP/src/netif/slipif.c ****       } /* end switch (c) */
 241:../../Middlewares/Third_Party/LwIP/src/netif/slipif.c ****       break;
 242:../../Middlewares/Third_Party/LwIP/src/netif/slipif.c ****     case SLIP_RECV_ESCAPE:
 243:../../Middlewares/Third_Party/LwIP/src/netif/slipif.c ****       /* un-escape END or ESC bytes, leave other bytes
 244:../../Middlewares/Third_Party/LwIP/src/netif/slipif.c ****          (although that would be a protocol error) */
 245:../../Middlewares/Third_Party/LwIP/src/netif/slipif.c ****       switch (c) {
 306              		.loc 1 245 7 is_stmt 1 view .LVU81
 307 0016 DC2D     		cmp	r5, #220
 308 0018 27D0     		beq	.L38
 309 001a DD2D     		cmp	r5, #221
 310 001c 26D1     		bne	.L33
 246:../../Middlewares/Third_Party/LwIP/src/netif/slipif.c ****         case SLIP_ESC_END:
 247:../../Middlewares/Third_Party/LwIP/src/netif/slipif.c ****           c = SLIP_END;
 248:../../Middlewares/Third_Party/LwIP/src/netif/slipif.c ****           break;
 249:../../Middlewares/Third_Party/LwIP/src/netif/slipif.c ****         case SLIP_ESC_ESC:
 250:../../Middlewares/Third_Party/LwIP/src/netif/slipif.c ****           c = SLIP_ESC;
 311              		.loc 1 250 13 is_stmt 0 view .LVU82
 312 001e DB25     		movs	r5, #219
 313              	.LVL31:
 314              		.loc 1 250 13 view .LVU83
 315 0020 24E0     		b	.L33
 316              	.LVL32:
 317              	.L42:
 212:../../Middlewares/Third_Party/LwIP/src/netif/slipif.c ****   LWIP_ASSERT("netif->state != NULL", (netif->state != NULL));
 318              		.loc 1 212 3 is_stmt 1 discriminator 1 view .LVU84
 212:../../Middlewares/Third_Party/LwIP/src/netif/slipif.c ****   LWIP_ASSERT("netif->state != NULL", (netif->state != NULL));
 319              		.loc 1 212 3 discriminator 1 view .LVU85
 320 0022 304B     		ldr	r3, .L46
 321 0024 D422     		movs	r2, #212
 322 0026 3049     		ldr	r1, .L46+4
 323              	.LVL33:
 212:../../Middlewares/Third_Party/LwIP/src/netif/slipif.c ****   LWIP_ASSERT("netif->state != NULL", (netif->state != NULL));
 324              		.loc 1 212 3 is_stmt 0 discriminator 1 view .LVU86
 325 0028 3048     		ldr	r0, .L46+8
 326              	.LVL34:
 212:../../Middlewares/Third_Party/LwIP/src/netif/slipif.c ****   LWIP_ASSERT("netif->state != NULL", (netif->state != NULL));
 327              		.loc 1 212 3 discriminator 1 view .LVU87
 328 002a FFF7FEFF 		bl	printf
 329              	.LVL35:
 330 002e EBE7     		b	.L25
 331              	.L43:
 213:../../Middlewares/Third_Party/LwIP/src/netif/slipif.c **** 
 332              		.loc 1 213 3 is_stmt 1 discriminator 1 view .LVU88
 213:../../Middlewares/Third_Party/LwIP/src/netif/slipif.c **** 
 333              		.loc 1 213 3 discriminator 1 view .LVU89
 334 0030 2C4B     		ldr	r3, .L46
 335 0032 D522     		movs	r2, #213
ARM GAS  /tmp/ccB1qwLo.s 			page 12


 336 0034 2E49     		ldr	r1, .L46+12
 337 0036 2D48     		ldr	r0, .L46+8
 338 0038 FFF7FEFF 		bl	printf
 339              	.LVL36:
 340 003c E6E7     		b	.L26
 341              	.LVL37:
 342              	.L27:
 219:../../Middlewares/Third_Party/LwIP/src/netif/slipif.c ****         case SLIP_END:
 343              		.loc 1 219 7 view .LVU90
 344 003e C02D     		cmp	r5, #192
 345 0040 05D0     		beq	.L30
 346 0042 DB2D     		cmp	r5, #219
 347 0044 14D1     		bne	.L29
 236:../../Middlewares/Third_Party/LwIP/src/netif/slipif.c ****           return NULL;
 348              		.loc 1 236 11 view .LVU91
 236:../../Middlewares/Third_Party/LwIP/src/netif/slipif.c ****           return NULL;
 349              		.loc 1 236 23 is_stmt 0 view .LVU92
 350 0046 0123     		movs	r3, #1
 351 0048 2373     		strb	r3, [r4, #12]
 237:../../Middlewares/Third_Party/LwIP/src/netif/slipif.c ****         default:
 352              		.loc 1 237 11 is_stmt 1 view .LVU93
 237:../../Middlewares/Third_Party/LwIP/src/netif/slipif.c ****         default:
 353              		.loc 1 237 18 is_stmt 0 view .LVU94
 354 004a 0020     		movs	r0, #0
 355 004c 47E0     		b	.L24
 356              	.L30:
 221:../../Middlewares/Third_Party/LwIP/src/netif/slipif.c ****             /* Received whole packet. */
 357              		.loc 1 221 11 is_stmt 1 view .LVU95
 221:../../Middlewares/Third_Party/LwIP/src/netif/slipif.c ****             /* Received whole packet. */
 358              		.loc 1 221 19 is_stmt 0 view .LVU96
 359 004e 218A     		ldrh	r1, [r4, #16]
 221:../../Middlewares/Third_Party/LwIP/src/netif/slipif.c ****             /* Received whole packet. */
 360              		.loc 1 221 14 view .LVU97
 361 0050 09B9     		cbnz	r1, .L44
 234:../../Middlewares/Third_Party/LwIP/src/netif/slipif.c ****         case SLIP_ESC:
 362              		.loc 1 234 18 view .LVU98
 363 0052 0020     		movs	r0, #0
 364 0054 43E0     		b	.L24
 365              	.L44:
 224:../../Middlewares/Third_Party/LwIP/src/netif/slipif.c **** 
 366              		.loc 1 224 13 is_stmt 1 view .LVU99
 367 0056 A068     		ldr	r0, [r4, #8]
 368 0058 FFF7FEFF 		bl	pbuf_realloc
 369              	.LVL38:
 226:../../Middlewares/Third_Party/LwIP/src/netif/slipif.c **** 
 370              		.loc 1 226 38 view .LVU100
 228:../../Middlewares/Third_Party/LwIP/src/netif/slipif.c ****             t = priv->q;
 371              		.loc 1 228 93 view .LVU101
 229:../../Middlewares/Third_Party/LwIP/src/netif/slipif.c ****             priv->p = priv->q = NULL;
 372              		.loc 1 229 13 view .LVU102
 229:../../Middlewares/Third_Party/LwIP/src/netif/slipif.c ****             priv->p = priv->q = NULL;
 373              		.loc 1 229 15 is_stmt 0 view .LVU103
 374 005c A068     		ldr	r0, [r4, #8]
 375              	.LVL39:
 230:../../Middlewares/Third_Party/LwIP/src/netif/slipif.c ****             priv->i = priv->recved = 0;
 376              		.loc 1 230 13 is_stmt 1 view .LVU104
 230:../../Middlewares/Third_Party/LwIP/src/netif/slipif.c ****             priv->i = priv->recved = 0;
ARM GAS  /tmp/ccB1qwLo.s 			page 13


 377              		.loc 1 230 31 is_stmt 0 view .LVU105
 378 005e 0023     		movs	r3, #0
 379 0060 A360     		str	r3, [r4, #8]
 230:../../Middlewares/Third_Party/LwIP/src/netif/slipif.c ****             priv->i = priv->recved = 0;
 380              		.loc 1 230 21 view .LVU106
 381 0062 6360     		str	r3, [r4, #4]
 231:../../Middlewares/Third_Party/LwIP/src/netif/slipif.c ****             return t;
 382              		.loc 1 231 13 is_stmt 1 view .LVU107
 231:../../Middlewares/Third_Party/LwIP/src/netif/slipif.c ****             return t;
 383              		.loc 1 231 36 is_stmt 0 view .LVU108
 384 0064 2382     		strh	r3, [r4, #16]	@ movhi
 231:../../Middlewares/Third_Party/LwIP/src/netif/slipif.c ****             return t;
 385              		.loc 1 231 21 view .LVU109
 386 0066 E381     		strh	r3, [r4, #14]	@ movhi
 232:../../Middlewares/Third_Party/LwIP/src/netif/slipif.c ****           }
 387              		.loc 1 232 13 is_stmt 1 view .LVU110
 232:../../Middlewares/Third_Party/LwIP/src/netif/slipif.c ****           }
 388              		.loc 1 232 20 is_stmt 0 view .LVU111
 389 0068 39E0     		b	.L24
 390              	.LVL40:
 391              	.L38:
 247:../../Middlewares/Third_Party/LwIP/src/netif/slipif.c ****           break;
 392              		.loc 1 247 13 view .LVU112
 393 006a C025     		movs	r5, #192
 394              	.LVL41:
 395              	.L33:
 251:../../Middlewares/Third_Party/LwIP/src/netif/slipif.c ****           break;
 252:../../Middlewares/Third_Party/LwIP/src/netif/slipif.c ****         default:
 253:../../Middlewares/Third_Party/LwIP/src/netif/slipif.c ****           break;
 254:../../Middlewares/Third_Party/LwIP/src/netif/slipif.c ****       }
 255:../../Middlewares/Third_Party/LwIP/src/netif/slipif.c ****       priv->state = SLIP_RECV_NORMAL;
 396              		.loc 1 255 7 is_stmt 1 view .LVU113
 397              		.loc 1 255 19 is_stmt 0 view .LVU114
 398 006c 0023     		movs	r3, #0
 399 006e 2373     		strb	r3, [r4, #12]
 256:../../Middlewares/Third_Party/LwIP/src/netif/slipif.c ****       break;
 400              		.loc 1 256 7 is_stmt 1 view .LVU115
 401              	.LVL42:
 402              	.L29:
 257:../../Middlewares/Third_Party/LwIP/src/netif/slipif.c ****     default:
 258:../../Middlewares/Third_Party/LwIP/src/netif/slipif.c ****       break;
 259:../../Middlewares/Third_Party/LwIP/src/netif/slipif.c ****   } /* end switch (priv->state) */
 260:../../Middlewares/Third_Party/LwIP/src/netif/slipif.c **** 
 261:../../Middlewares/Third_Party/LwIP/src/netif/slipif.c ****   /* byte received, packet not yet completely received */
 262:../../Middlewares/Third_Party/LwIP/src/netif/slipif.c ****   if (priv->p == NULL) {
 403              		.loc 1 262 3 view .LVU116
 404              		.loc 1 262 11 is_stmt 0 view .LVU117
 405 0070 6368     		ldr	r3, [r4, #4]
 406              		.loc 1 262 6 view .LVU118
 407 0072 F3B1     		cbz	r3, .L45
 408              	.L34:
 263:../../Middlewares/Third_Party/LwIP/src/netif/slipif.c ****     /* allocate a new pbuf */
 264:../../Middlewares/Third_Party/LwIP/src/netif/slipif.c ****     LWIP_DEBUGF(SLIP_DEBUG, ("slipif_input: alloc\n"));
 265:../../Middlewares/Third_Party/LwIP/src/netif/slipif.c ****     priv->p = pbuf_alloc(PBUF_LINK, (PBUF_POOL_BUFSIZE - PBUF_LINK_HLEN - PBUF_LINK_ENCAPSULATION_H
 266:../../Middlewares/Third_Party/LwIP/src/netif/slipif.c **** 
 267:../../Middlewares/Third_Party/LwIP/src/netif/slipif.c ****     if (priv->p == NULL) {
 268:../../Middlewares/Third_Party/LwIP/src/netif/slipif.c ****       LINK_STATS_INC(link.drop);
ARM GAS  /tmp/ccB1qwLo.s 			page 14


 269:../../Middlewares/Third_Party/LwIP/src/netif/slipif.c ****       LWIP_DEBUGF(SLIP_DEBUG, ("slipif_input: no new pbuf! (DROP)\n"));
 270:../../Middlewares/Third_Party/LwIP/src/netif/slipif.c ****       /* don't process any further since we got no pbuf to receive to */
 271:../../Middlewares/Third_Party/LwIP/src/netif/slipif.c ****       return NULL;
 272:../../Middlewares/Third_Party/LwIP/src/netif/slipif.c ****     }
 273:../../Middlewares/Third_Party/LwIP/src/netif/slipif.c **** 
 274:../../Middlewares/Third_Party/LwIP/src/netif/slipif.c ****     if (priv->q != NULL) {
 275:../../Middlewares/Third_Party/LwIP/src/netif/slipif.c ****       /* 'chain' the pbuf to the existing chain */
 276:../../Middlewares/Third_Party/LwIP/src/netif/slipif.c ****       pbuf_cat(priv->q, priv->p);
 277:../../Middlewares/Third_Party/LwIP/src/netif/slipif.c ****     } else {
 278:../../Middlewares/Third_Party/LwIP/src/netif/slipif.c ****       /* p is the first pbuf in the chain */
 279:../../Middlewares/Third_Party/LwIP/src/netif/slipif.c ****       priv->q = priv->p;
 280:../../Middlewares/Third_Party/LwIP/src/netif/slipif.c ****     }
 281:../../Middlewares/Third_Party/LwIP/src/netif/slipif.c ****   }
 282:../../Middlewares/Third_Party/LwIP/src/netif/slipif.c **** 
 283:../../Middlewares/Third_Party/LwIP/src/netif/slipif.c ****   /* this automatically drops bytes if > SLIP_MAX_SIZE */
 284:../../Middlewares/Third_Party/LwIP/src/netif/slipif.c ****   if ((priv->p != NULL) && (priv->recved <= SLIP_MAX_SIZE)) {
 409              		.loc 1 284 3 is_stmt 1 view .LVU119
 410              		.loc 1 284 12 is_stmt 0 view .LVU120
 411 0074 6068     		ldr	r0, [r4, #4]
 412              		.loc 1 284 6 view .LVU121
 413 0076 0028     		cmp	r0, #0
 414 0078 31D0     		beq	.L24
 415              		.loc 1 284 33 discriminator 1 view .LVU122
 416 007a 228A     		ldrh	r2, [r4, #16]
 417              		.loc 1 284 25 discriminator 1 view .LVU123
 418 007c 40F2DC53 		movw	r3, #1500
 419 0080 9A42     		cmp	r2, r3
 420 0082 2BD8     		bhi	.L39
 285:../../Middlewares/Third_Party/LwIP/src/netif/slipif.c ****     ((u8_t *)priv->p->payload)[priv->i] = c;
 421              		.loc 1 285 5 is_stmt 1 view .LVU124
 422              		.loc 1 285 21 is_stmt 0 view .LVU125
 423 0084 4268     		ldr	r2, [r0, #4]
 424              		.loc 1 285 36 view .LVU126
 425 0086 E389     		ldrh	r3, [r4, #14]
 426              		.loc 1 285 41 view .LVU127
 427 0088 D554     		strb	r5, [r2, r3]
 286:../../Middlewares/Third_Party/LwIP/src/netif/slipif.c ****     priv->recved++;
 428              		.loc 1 286 5 is_stmt 1 view .LVU128
 429              		.loc 1 286 9 is_stmt 0 view .LVU129
 430 008a 238A     		ldrh	r3, [r4, #16]
 431              		.loc 1 286 17 view .LVU130
 432 008c 0133     		adds	r3, r3, #1
 433 008e 2382     		strh	r3, [r4, #16]	@ movhi
 287:../../Middlewares/Third_Party/LwIP/src/netif/slipif.c ****     priv->i++;
 434              		.loc 1 287 5 is_stmt 1 view .LVU131
 435              		.loc 1 287 9 is_stmt 0 view .LVU132
 436 0090 E389     		ldrh	r3, [r4, #14]
 437              		.loc 1 287 12 view .LVU133
 438 0092 0133     		adds	r3, r3, #1
 439 0094 9BB2     		uxth	r3, r3
 440 0096 E381     		strh	r3, [r4, #14]	@ movhi
 288:../../Middlewares/Third_Party/LwIP/src/netif/slipif.c ****     if (priv->i >= priv->p->len) {
 441              		.loc 1 288 5 is_stmt 1 view .LVU134
 442              		.loc 1 288 24 is_stmt 0 view .LVU135
 443 0098 6268     		ldr	r2, [r4, #4]
 444              		.loc 1 288 27 view .LVU136
 445 009a 5189     		ldrh	r1, [r2, #10]
ARM GAS  /tmp/ccB1qwLo.s 			page 15


 446              		.loc 1 288 8 view .LVU137
 447 009c 8B42     		cmp	r3, r1
 448 009e 1FD3     		bcc	.L40
 289:../../Middlewares/Third_Party/LwIP/src/netif/slipif.c ****       /* on to the next pbuf */
 290:../../Middlewares/Third_Party/LwIP/src/netif/slipif.c ****       priv->i = 0;
 449              		.loc 1 290 7 is_stmt 1 view .LVU138
 450              		.loc 1 290 15 is_stmt 0 view .LVU139
 451 00a0 0023     		movs	r3, #0
 452 00a2 E381     		strh	r3, [r4, #14]	@ movhi
 291:../../Middlewares/Third_Party/LwIP/src/netif/slipif.c ****       if (priv->p->next != NULL && priv->p->next->len > 0) {
 453              		.loc 1 291 7 is_stmt 1 view .LVU140
 454              		.loc 1 291 18 is_stmt 0 view .LVU141
 455 00a4 1368     		ldr	r3, [r2]
 456              		.loc 1 291 10 view .LVU142
 457 00a6 B3B1     		cbz	r3, .L36
 458              		.loc 1 291 49 discriminator 1 view .LVU143
 459 00a8 5A89     		ldrh	r2, [r3, #10]
 460              		.loc 1 291 33 discriminator 1 view .LVU144
 461 00aa A2B1     		cbz	r2, .L36
 292:../../Middlewares/Third_Party/LwIP/src/netif/slipif.c ****         /* p is a chain, on to the next in the chain */
 293:../../Middlewares/Third_Party/LwIP/src/netif/slipif.c ****         priv->p = priv->p->next;
 462              		.loc 1 293 9 is_stmt 1 view .LVU145
 463              		.loc 1 293 17 is_stmt 0 view .LVU146
 464 00ac 6360     		str	r3, [r4, #4]
 294:../../Middlewares/Third_Party/LwIP/src/netif/slipif.c ****       } else {
 295:../../Middlewares/Third_Party/LwIP/src/netif/slipif.c ****         /* p is a single pbuf, set it to NULL so next time a new
 296:../../Middlewares/Third_Party/LwIP/src/netif/slipif.c ****          * pbuf is allocated */
 297:../../Middlewares/Third_Party/LwIP/src/netif/slipif.c ****         priv->p = NULL;
 298:../../Middlewares/Third_Party/LwIP/src/netif/slipif.c ****       }
 299:../../Middlewares/Third_Party/LwIP/src/netif/slipif.c ****     }
 300:../../Middlewares/Third_Party/LwIP/src/netif/slipif.c ****   }
 301:../../Middlewares/Third_Party/LwIP/src/netif/slipif.c ****   return NULL;
 465              		.loc 1 301 10 view .LVU147
 466 00ae 0020     		movs	r0, #0
 293:../../Middlewares/Third_Party/LwIP/src/netif/slipif.c ****       } else {
 467              		.loc 1 293 17 view .LVU148
 468 00b0 15E0     		b	.L24
 469              	.L45:
 264:../../Middlewares/Third_Party/LwIP/src/netif/slipif.c ****     priv->p = pbuf_alloc(PBUF_LINK, (PBUF_POOL_BUFSIZE - PBUF_LINK_HLEN - PBUF_LINK_ENCAPSULATION_H
 470              		.loc 1 264 55 is_stmt 1 view .LVU149
 265:../../Middlewares/Third_Party/LwIP/src/netif/slipif.c **** 
 471              		.loc 1 265 5 view .LVU150
 265:../../Middlewares/Third_Party/LwIP/src/netif/slipif.c **** 
 472              		.loc 1 265 15 is_stmt 0 view .LVU151
 473 00b2 4FF4C172 		mov	r2, #386
 474 00b6 40F24221 		movw	r1, #578
 475 00ba 0E20     		movs	r0, #14
 476 00bc FFF7FEFF 		bl	pbuf_alloc
 477              	.LVL43:
 265:../../Middlewares/Third_Party/LwIP/src/netif/slipif.c **** 
 478              		.loc 1 265 13 discriminator 1 view .LVU152
 479 00c0 6060     		str	r0, [r4, #4]
 267:../../Middlewares/Third_Party/LwIP/src/netif/slipif.c ****       LINK_STATS_INC(link.drop);
 480              		.loc 1 267 5 is_stmt 1 view .LVU153
 267:../../Middlewares/Third_Party/LwIP/src/netif/slipif.c ****       LINK_STATS_INC(link.drop);
 481              		.loc 1 267 8 is_stmt 0 view .LVU154
 482 00c2 60B1     		cbz	r0, .L24
ARM GAS  /tmp/ccB1qwLo.s 			page 16


 274:../../Middlewares/Third_Party/LwIP/src/netif/slipif.c ****       /* 'chain' the pbuf to the existing chain */
 483              		.loc 1 274 5 is_stmt 1 view .LVU155
 274:../../Middlewares/Third_Party/LwIP/src/netif/slipif.c ****       /* 'chain' the pbuf to the existing chain */
 484              		.loc 1 274 13 is_stmt 0 view .LVU156
 485 00c4 A368     		ldr	r3, [r4, #8]
 274:../../Middlewares/Third_Party/LwIP/src/netif/slipif.c ****       /* 'chain' the pbuf to the existing chain */
 486              		.loc 1 274 8 view .LVU157
 487 00c6 23B1     		cbz	r3, .L35
 276:../../Middlewares/Third_Party/LwIP/src/netif/slipif.c ****     } else {
 488              		.loc 1 276 7 is_stmt 1 view .LVU158
 489 00c8 0146     		mov	r1, r0
 490 00ca 1846     		mov	r0, r3
 491 00cc FFF7FEFF 		bl	pbuf_cat
 492              	.LVL44:
 493 00d0 D0E7     		b	.L34
 494              	.L35:
 279:../../Middlewares/Third_Party/LwIP/src/netif/slipif.c ****     }
 495              		.loc 1 279 7 view .LVU159
 279:../../Middlewares/Third_Party/LwIP/src/netif/slipif.c ****     }
 496              		.loc 1 279 15 is_stmt 0 view .LVU160
 497 00d2 A060     		str	r0, [r4, #8]
 498 00d4 CEE7     		b	.L34
 499              	.L36:
 297:../../Middlewares/Third_Party/LwIP/src/netif/slipif.c ****       }
 500              		.loc 1 297 9 is_stmt 1 view .LVU161
 297:../../Middlewares/Third_Party/LwIP/src/netif/slipif.c ****       }
 501              		.loc 1 297 17 is_stmt 0 view .LVU162
 502 00d6 0020     		movs	r0, #0
 503 00d8 6060     		str	r0, [r4, #4]
 504 00da 00E0     		b	.L24
 505              	.L39:
 506              		.loc 1 301 10 view .LVU163
 507 00dc 0020     		movs	r0, #0
 508              	.LVL45:
 509              	.L24:
 302:../../Middlewares/Third_Party/LwIP/src/netif/slipif.c **** }
 510              		.loc 1 302 1 view .LVU164
 511 00de 38BD     		pop	{r3, r4, r5, pc}
 512              	.LVL46:
 513              	.L40:
 301:../../Middlewares/Third_Party/LwIP/src/netif/slipif.c **** }
 514              		.loc 1 301 10 view .LVU165
 515 00e0 0020     		movs	r0, #0
 516 00e2 FCE7     		b	.L24
 517              	.L47:
 518              		.align	2
 519              	.L46:
 520 00e4 00000000 		.word	.LC0
 521 00e8 38000000 		.word	.LC1
 522 00ec 48000000 		.word	.LC2
 523 00f0 70000000 		.word	.LC3
 524              		.cfi_endproc
 525              	.LFE172:
 527              		.section	.text.slipif_rxbyte_input,"ax",%progbits
 528              		.align	1
 529              		.syntax unified
 530              		.thumb
ARM GAS  /tmp/ccB1qwLo.s 			page 17


 531              		.thumb_func
 533              	slipif_rxbyte_input:
 534              	.LVL47:
 535              	.LFB173:
 303:../../Middlewares/Third_Party/LwIP/src/netif/slipif.c **** 
 304:../../Middlewares/Third_Party/LwIP/src/netif/slipif.c **** /** Like slipif_rxbyte, but passes completed packets to netif->input
 305:../../Middlewares/Third_Party/LwIP/src/netif/slipif.c ****  *
 306:../../Middlewares/Third_Party/LwIP/src/netif/slipif.c ****  * @param netif The lwip network interface structure for this slipif
 307:../../Middlewares/Third_Party/LwIP/src/netif/slipif.c ****  * @param c received character
 308:../../Middlewares/Third_Party/LwIP/src/netif/slipif.c ****  */
 309:../../Middlewares/Third_Party/LwIP/src/netif/slipif.c **** static void
 310:../../Middlewares/Third_Party/LwIP/src/netif/slipif.c **** slipif_rxbyte_input(struct netif *netif, u8_t c)
 311:../../Middlewares/Third_Party/LwIP/src/netif/slipif.c **** {
 536              		.loc 1 311 1 is_stmt 1 view -0
 537              		.cfi_startproc
 538              		@ args = 0, pretend = 0, frame = 0
 539              		@ frame_needed = 0, uses_anonymous_args = 0
 540              		.loc 1 311 1 is_stmt 0 view .LVU167
 541 0000 38B5     		push	{r3, r4, r5, lr}
 542              	.LCFI3:
 543              		.cfi_def_cfa_offset 16
 544              		.cfi_offset 3, -16
 545              		.cfi_offset 4, -12
 546              		.cfi_offset 5, -8
 547              		.cfi_offset 14, -4
 548 0002 0446     		mov	r4, r0
 312:../../Middlewares/Third_Party/LwIP/src/netif/slipif.c ****   struct pbuf *p;
 549              		.loc 1 312 3 is_stmt 1 view .LVU168
 313:../../Middlewares/Third_Party/LwIP/src/netif/slipif.c ****   p = slipif_rxbyte(netif, c);
 550              		.loc 1 313 3 view .LVU169
 551              		.loc 1 313 7 is_stmt 0 view .LVU170
 552 0004 FFF7FEFF 		bl	slipif_rxbyte
 553              	.LVL48:
 314:../../Middlewares/Third_Party/LwIP/src/netif/slipif.c ****   if (p != NULL) {
 554              		.loc 1 314 3 is_stmt 1 view .LVU171
 555              		.loc 1 314 6 is_stmt 0 view .LVU172
 556 0008 20B1     		cbz	r0, .L48
 557 000a 0546     		mov	r5, r0
 315:../../Middlewares/Third_Party/LwIP/src/netif/slipif.c ****     if (netif->input(p, netif) != ERR_OK) {
 558              		.loc 1 315 5 is_stmt 1 view .LVU173
 559              		.loc 1 315 14 is_stmt 0 view .LVU174
 560 000c 2369     		ldr	r3, [r4, #16]
 561              		.loc 1 315 9 view .LVU175
 562 000e 2146     		mov	r1, r4
 563 0010 9847     		blx	r3
 564              	.LVL49:
 565              		.loc 1 315 8 discriminator 1 view .LVU176
 566 0012 00B9     		cbnz	r0, .L51
 567              	.LVL50:
 568              	.L48:
 316:../../Middlewares/Third_Party/LwIP/src/netif/slipif.c ****       pbuf_free(p);
 317:../../Middlewares/Third_Party/LwIP/src/netif/slipif.c ****     }
 318:../../Middlewares/Third_Party/LwIP/src/netif/slipif.c ****   }
 319:../../Middlewares/Third_Party/LwIP/src/netif/slipif.c **** }
 569              		.loc 1 319 1 view .LVU177
 570 0014 38BD     		pop	{r3, r4, r5, pc}
 571              	.LVL51:
ARM GAS  /tmp/ccB1qwLo.s 			page 18


 572              	.L51:
 316:../../Middlewares/Third_Party/LwIP/src/netif/slipif.c ****       pbuf_free(p);
 573              		.loc 1 316 7 is_stmt 1 view .LVU178
 574 0016 2846     		mov	r0, r5
 575 0018 FFF7FEFF 		bl	pbuf_free
 576              	.LVL52:
 577              		.loc 1 319 1 is_stmt 0 view .LVU179
 578 001c FAE7     		b	.L48
 579              		.cfi_endproc
 580              	.LFE173:
 582              		.section	.rodata.slipif_init.str1.4,"aMS",%progbits,1
 583              		.align	2
 584              	.LC5:
 585 0000 736C6970 		.ascii	"slipif needs an input callback\000"
 585      6966206E 
 585      65656473 
 585      20616E20 
 585      696E7075 
 586              		.section	.text.slipif_init,"ax",%progbits
 587              		.align	1
 588              		.global	slipif_init
 589              		.syntax unified
 590              		.thumb
 591              		.thumb_func
 593              	slipif_init:
 594              	.LVL53:
 595              	.LFB174:
 320:../../Middlewares/Third_Party/LwIP/src/netif/slipif.c **** 
 321:../../Middlewares/Third_Party/LwIP/src/netif/slipif.c **** #if SLIP_USE_RX_THREAD
 322:../../Middlewares/Third_Party/LwIP/src/netif/slipif.c **** /**
 323:../../Middlewares/Third_Party/LwIP/src/netif/slipif.c ****  * The SLIP input thread.
 324:../../Middlewares/Third_Party/LwIP/src/netif/slipif.c ****  *
 325:../../Middlewares/Third_Party/LwIP/src/netif/slipif.c ****  * Feed the IP layer with incoming packets
 326:../../Middlewares/Third_Party/LwIP/src/netif/slipif.c ****  *
 327:../../Middlewares/Third_Party/LwIP/src/netif/slipif.c ****  * @param nf the lwip network interface structure for this slipif
 328:../../Middlewares/Third_Party/LwIP/src/netif/slipif.c ****  */
 329:../../Middlewares/Third_Party/LwIP/src/netif/slipif.c **** static void
 330:../../Middlewares/Third_Party/LwIP/src/netif/slipif.c **** slipif_loop_thread(void *nf)
 331:../../Middlewares/Third_Party/LwIP/src/netif/slipif.c **** {
 332:../../Middlewares/Third_Party/LwIP/src/netif/slipif.c ****   u8_t c;
 333:../../Middlewares/Third_Party/LwIP/src/netif/slipif.c ****   struct netif *netif = (struct netif *)nf;
 334:../../Middlewares/Third_Party/LwIP/src/netif/slipif.c ****   struct slipif_priv *priv = (struct slipif_priv *)netif->state;
 335:../../Middlewares/Third_Party/LwIP/src/netif/slipif.c **** 
 336:../../Middlewares/Third_Party/LwIP/src/netif/slipif.c ****   while (1) {
 337:../../Middlewares/Third_Party/LwIP/src/netif/slipif.c ****     if (sio_read(priv->sd, &c, 1) > 0) {
 338:../../Middlewares/Third_Party/LwIP/src/netif/slipif.c ****       slipif_rxbyte_input(netif, c);
 339:../../Middlewares/Third_Party/LwIP/src/netif/slipif.c ****     }
 340:../../Middlewares/Third_Party/LwIP/src/netif/slipif.c ****   }
 341:../../Middlewares/Third_Party/LwIP/src/netif/slipif.c **** }
 342:../../Middlewares/Third_Party/LwIP/src/netif/slipif.c **** #endif /* SLIP_USE_RX_THREAD */
 343:../../Middlewares/Third_Party/LwIP/src/netif/slipif.c **** 
 344:../../Middlewares/Third_Party/LwIP/src/netif/slipif.c **** /**
 345:../../Middlewares/Third_Party/LwIP/src/netif/slipif.c ****  * @ingroup slipif
 346:../../Middlewares/Third_Party/LwIP/src/netif/slipif.c ****  * SLIP netif initialization
 347:../../Middlewares/Third_Party/LwIP/src/netif/slipif.c ****  *
 348:../../Middlewares/Third_Party/LwIP/src/netif/slipif.c ****  * Call the arch specific sio_open and remember
 349:../../Middlewares/Third_Party/LwIP/src/netif/slipif.c ****  * the opened device in the state field of the netif.
ARM GAS  /tmp/ccB1qwLo.s 			page 19


 350:../../Middlewares/Third_Party/LwIP/src/netif/slipif.c ****  *
 351:../../Middlewares/Third_Party/LwIP/src/netif/slipif.c ****  * @param netif the lwip network interface structure for this slipif
 352:../../Middlewares/Third_Party/LwIP/src/netif/slipif.c ****  * @return ERR_OK if serial line could be opened,
 353:../../Middlewares/Third_Party/LwIP/src/netif/slipif.c ****  *         ERR_MEM if no memory could be allocated,
 354:../../Middlewares/Third_Party/LwIP/src/netif/slipif.c ****  *         ERR_IF is serial line couldn't be opened
 355:../../Middlewares/Third_Party/LwIP/src/netif/slipif.c ****  *
 356:../../Middlewares/Third_Party/LwIP/src/netif/slipif.c ****  * @note If netif->state is interpreted as an u8_t serial port number.
 357:../../Middlewares/Third_Party/LwIP/src/netif/slipif.c ****  *
 358:../../Middlewares/Third_Party/LwIP/src/netif/slipif.c ****  */
 359:../../Middlewares/Third_Party/LwIP/src/netif/slipif.c **** err_t
 360:../../Middlewares/Third_Party/LwIP/src/netif/slipif.c **** slipif_init(struct netif *netif)
 361:../../Middlewares/Third_Party/LwIP/src/netif/slipif.c **** {
 596              		.loc 1 361 1 is_stmt 1 view -0
 597              		.cfi_startproc
 598              		@ args = 0, pretend = 0, frame = 0
 599              		@ frame_needed = 0, uses_anonymous_args = 0
 600              		.loc 1 361 1 is_stmt 0 view .LVU181
 601 0000 70B5     		push	{r4, r5, r6, lr}
 602              	.LCFI4:
 603              		.cfi_def_cfa_offset 16
 604              		.cfi_offset 4, -16
 605              		.cfi_offset 5, -12
 606              		.cfi_offset 6, -8
 607              		.cfi_offset 14, -4
 608 0002 0446     		mov	r4, r0
 362:../../Middlewares/Third_Party/LwIP/src/netif/slipif.c ****   struct slipif_priv *priv;
 609              		.loc 1 362 3 is_stmt 1 view .LVU182
 363:../../Middlewares/Third_Party/LwIP/src/netif/slipif.c ****   u8_t sio_num;
 610              		.loc 1 363 3 view .LVU183
 364:../../Middlewares/Third_Party/LwIP/src/netif/slipif.c **** 
 365:../../Middlewares/Third_Party/LwIP/src/netif/slipif.c ****   LWIP_ASSERT("slipif needs an input callback", netif->input != NULL);
 611              		.loc 1 365 3 view .LVU184
 612              		.loc 1 365 3 view .LVU185
 613 0004 0369     		ldr	r3, [r0, #16]
 614 0006 F3B1     		cbz	r3, .L58
 615              	.LVL54:
 616              	.L53:
 617              		.loc 1 365 3 discriminator 3 view .LVU186
 618              		.loc 1 365 3 discriminator 3 view .LVU187
 366:../../Middlewares/Third_Party/LwIP/src/netif/slipif.c **** 
 367:../../Middlewares/Third_Party/LwIP/src/netif/slipif.c ****   /* netif->state contains serial port number */
 368:../../Middlewares/Third_Party/LwIP/src/netif/slipif.c ****   sio_num = LWIP_PTR_NUMERIC_CAST(u8_t, netif->state);
 619              		.loc 1 368 3 view .LVU188
 620              		.loc 1 368 11 is_stmt 0 view .LVU189
 621 0008 94F82060 		ldrb	r6, [r4, #32]	@ zero_extendqisi2
 622              	.LVL55:
 369:../../Middlewares/Third_Party/LwIP/src/netif/slipif.c **** 
 370:../../Middlewares/Third_Party/LwIP/src/netif/slipif.c ****   LWIP_DEBUGF(SLIP_DEBUG, ("slipif_init: netif->num=%"U16_F"\n", (u16_t)sio_num));
 623              		.loc 1 370 82 is_stmt 1 view .LVU190
 371:../../Middlewares/Third_Party/LwIP/src/netif/slipif.c **** 
 372:../../Middlewares/Third_Party/LwIP/src/netif/slipif.c ****   /* Allocate private data */
 373:../../Middlewares/Third_Party/LwIP/src/netif/slipif.c ****   priv = (struct slipif_priv *)mem_malloc(sizeof(struct slipif_priv));
 624              		.loc 1 373 3 view .LVU191
 625              		.loc 1 373 32 is_stmt 0 view .LVU192
 626 000c 1420     		movs	r0, #20
 627 000e FFF7FEFF 		bl	mem_malloc
 628              	.LVL56:
ARM GAS  /tmp/ccB1qwLo.s 			page 20


 374:../../Middlewares/Third_Party/LwIP/src/netif/slipif.c ****   if (!priv) {
 629              		.loc 1 374 3 is_stmt 1 view .LVU193
 630              		.loc 1 374 6 is_stmt 0 view .LVU194
 631 0012 0546     		mov	r5, r0
 632 0014 28B3     		cbz	r0, .L56
 375:../../Middlewares/Third_Party/LwIP/src/netif/slipif.c ****     return ERR_MEM;
 376:../../Middlewares/Third_Party/LwIP/src/netif/slipif.c ****   }
 377:../../Middlewares/Third_Party/LwIP/src/netif/slipif.c **** 
 378:../../Middlewares/Third_Party/LwIP/src/netif/slipif.c ****   netif->name[0] = 's';
 633              		.loc 1 378 3 is_stmt 1 view .LVU195
 634              		.loc 1 378 18 is_stmt 0 view .LVU196
 635 0016 7323     		movs	r3, #115
 636 0018 84F83230 		strb	r3, [r4, #50]
 379:../../Middlewares/Third_Party/LwIP/src/netif/slipif.c ****   netif->name[1] = 'l';
 637              		.loc 1 379 3 is_stmt 1 view .LVU197
 638              		.loc 1 379 18 is_stmt 0 view .LVU198
 639 001c 6C23     		movs	r3, #108
 640 001e 84F83330 		strb	r3, [r4, #51]
 380:../../Middlewares/Third_Party/LwIP/src/netif/slipif.c **** #if LWIP_IPV4
 381:../../Middlewares/Third_Party/LwIP/src/netif/slipif.c ****   netif->output = slipif_output_v4;
 641              		.loc 1 381 3 is_stmt 1 view .LVU199
 642              		.loc 1 381 17 is_stmt 0 view .LVU200
 643 0022 114B     		ldr	r3, .L60
 644 0024 6361     		str	r3, [r4, #20]
 382:../../Middlewares/Third_Party/LwIP/src/netif/slipif.c **** #endif /* LWIP_IPV4 */
 383:../../Middlewares/Third_Party/LwIP/src/netif/slipif.c **** #if LWIP_IPV6
 384:../../Middlewares/Third_Party/LwIP/src/netif/slipif.c ****   netif->output_ip6 = slipif_output_v6;
 385:../../Middlewares/Third_Party/LwIP/src/netif/slipif.c **** #endif /* LWIP_IPV6 */
 386:../../Middlewares/Third_Party/LwIP/src/netif/slipif.c ****   netif->mtu = SLIP_MAX_SIZE;
 645              		.loc 1 386 3 is_stmt 1 view .LVU201
 646              		.loc 1 386 14 is_stmt 0 view .LVU202
 647 0026 40F2DC53 		movw	r3, #1500
 648 002a 2385     		strh	r3, [r4, #40]	@ movhi
 387:../../Middlewares/Third_Party/LwIP/src/netif/slipif.c **** 
 388:../../Middlewares/Third_Party/LwIP/src/netif/slipif.c ****   /* Try to open the serial port. */
 389:../../Middlewares/Third_Party/LwIP/src/netif/slipif.c ****   priv->sd = sio_open(sio_num);
 649              		.loc 1 389 3 is_stmt 1 view .LVU203
 650              		.loc 1 389 14 is_stmt 0 view .LVU204
 651 002c 3046     		mov	r0, r6
 652              	.LVL57:
 653              		.loc 1 389 14 view .LVU205
 654 002e FFF7FEFF 		bl	sio_open
 655              	.LVL58:
 656              		.loc 1 389 12 discriminator 1 view .LVU206
 657 0032 2860     		str	r0, [r5]
 390:../../Middlewares/Third_Party/LwIP/src/netif/slipif.c ****   if (!priv->sd) {
 658              		.loc 1 390 3 is_stmt 1 view .LVU207
 659              		.loc 1 390 6 is_stmt 0 view .LVU208
 660 0034 78B1     		cbz	r0, .L59
 391:../../Middlewares/Third_Party/LwIP/src/netif/slipif.c ****     /* Opening the serial port failed. */
 392:../../Middlewares/Third_Party/LwIP/src/netif/slipif.c ****     mem_free(priv);
 393:../../Middlewares/Third_Party/LwIP/src/netif/slipif.c ****     return ERR_IF;
 394:../../Middlewares/Third_Party/LwIP/src/netif/slipif.c ****   }
 395:../../Middlewares/Third_Party/LwIP/src/netif/slipif.c **** 
 396:../../Middlewares/Third_Party/LwIP/src/netif/slipif.c ****   /* Initialize private data */
 397:../../Middlewares/Third_Party/LwIP/src/netif/slipif.c ****   priv->p = NULL;
 661              		.loc 1 397 3 is_stmt 1 view .LVU209
ARM GAS  /tmp/ccB1qwLo.s 			page 21


 662              		.loc 1 397 11 is_stmt 0 view .LVU210
 663 0036 0020     		movs	r0, #0
 664 0038 6860     		str	r0, [r5, #4]
 398:../../Middlewares/Third_Party/LwIP/src/netif/slipif.c ****   priv->q = NULL;
 665              		.loc 1 398 3 is_stmt 1 view .LVU211
 666              		.loc 1 398 11 is_stmt 0 view .LVU212
 667 003a A860     		str	r0, [r5, #8]
 399:../../Middlewares/Third_Party/LwIP/src/netif/slipif.c ****   priv->state = SLIP_RECV_NORMAL;
 668              		.loc 1 399 3 is_stmt 1 view .LVU213
 669              		.loc 1 399 15 is_stmt 0 view .LVU214
 670 003c 2873     		strb	r0, [r5, #12]
 400:../../Middlewares/Third_Party/LwIP/src/netif/slipif.c ****   priv->i = 0;
 671              		.loc 1 400 3 is_stmt 1 view .LVU215
 672              		.loc 1 400 11 is_stmt 0 view .LVU216
 673 003e E881     		strh	r0, [r5, #14]	@ movhi
 401:../../Middlewares/Third_Party/LwIP/src/netif/slipif.c ****   priv->recved = 0;
 674              		.loc 1 401 3 is_stmt 1 view .LVU217
 675              		.loc 1 401 16 is_stmt 0 view .LVU218
 676 0040 2882     		strh	r0, [r5, #16]	@ movhi
 402:../../Middlewares/Third_Party/LwIP/src/netif/slipif.c **** #if SLIP_RX_FROM_ISR
 403:../../Middlewares/Third_Party/LwIP/src/netif/slipif.c ****   priv->rxpackets = NULL;
 404:../../Middlewares/Third_Party/LwIP/src/netif/slipif.c **** #endif
 405:../../Middlewares/Third_Party/LwIP/src/netif/slipif.c **** 
 406:../../Middlewares/Third_Party/LwIP/src/netif/slipif.c ****   netif->state = priv;
 677              		.loc 1 406 3 is_stmt 1 view .LVU219
 678              		.loc 1 406 16 is_stmt 0 view .LVU220
 679 0042 2562     		str	r5, [r4, #32]
 407:../../Middlewares/Third_Party/LwIP/src/netif/slipif.c **** 
 408:../../Middlewares/Third_Party/LwIP/src/netif/slipif.c ****   /* initialize the snmp variables and counters inside the struct netif */
 409:../../Middlewares/Third_Party/LwIP/src/netif/slipif.c ****   MIB2_INIT_NETIF(netif, snmp_ifType_slip, SLIP_SIO_SPEED(priv->sd));
 680              		.loc 1 409 69 is_stmt 1 view .LVU221
 410:../../Middlewares/Third_Party/LwIP/src/netif/slipif.c **** 
 411:../../Middlewares/Third_Party/LwIP/src/netif/slipif.c **** #if SLIP_USE_RX_THREAD
 412:../../Middlewares/Third_Party/LwIP/src/netif/slipif.c ****   /* Create a thread to poll the serial line. */
 413:../../Middlewares/Third_Party/LwIP/src/netif/slipif.c ****   sys_thread_new(SLIPIF_THREAD_NAME, slipif_loop_thread, netif,
 414:../../Middlewares/Third_Party/LwIP/src/netif/slipif.c ****                  SLIPIF_THREAD_STACKSIZE, SLIPIF_THREAD_PRIO);
 415:../../Middlewares/Third_Party/LwIP/src/netif/slipif.c **** #endif /* SLIP_USE_RX_THREAD */
 416:../../Middlewares/Third_Party/LwIP/src/netif/slipif.c ****   return ERR_OK;
 681              		.loc 1 416 3 view .LVU222
 682              	.L54:
 417:../../Middlewares/Third_Party/LwIP/src/netif/slipif.c **** }
 683              		.loc 1 417 1 is_stmt 0 view .LVU223
 684 0044 70BD     		pop	{r4, r5, r6, pc}
 685              	.LVL59:
 686              	.L58:
 365:../../Middlewares/Third_Party/LwIP/src/netif/slipif.c **** 
 687              		.loc 1 365 3 is_stmt 1 discriminator 1 view .LVU224
 365:../../Middlewares/Third_Party/LwIP/src/netif/slipif.c **** 
 688              		.loc 1 365 3 discriminator 1 view .LVU225
 689 0046 094B     		ldr	r3, .L60+4
 690 0048 40F26D12 		movw	r2, #365
 691 004c 0849     		ldr	r1, .L60+8
 692 004e 0948     		ldr	r0, .L60+12
 693              	.LVL60:
 365:../../Middlewares/Third_Party/LwIP/src/netif/slipif.c **** 
 694              		.loc 1 365 3 is_stmt 0 discriminator 1 view .LVU226
 695 0050 FFF7FEFF 		bl	printf
ARM GAS  /tmp/ccB1qwLo.s 			page 22


 696              	.LVL61:
 697 0054 D8E7     		b	.L53
 698              	.LVL62:
 699              	.L59:
 392:../../Middlewares/Third_Party/LwIP/src/netif/slipif.c ****     return ERR_IF;
 700              		.loc 1 392 5 is_stmt 1 view .LVU227
 701 0056 2846     		mov	r0, r5
 702 0058 FFF7FEFF 		bl	mem_free
 703              	.LVL63:
 393:../../Middlewares/Third_Party/LwIP/src/netif/slipif.c ****   }
 704              		.loc 1 393 5 view .LVU228
 393:../../Middlewares/Third_Party/LwIP/src/netif/slipif.c ****   }
 705              		.loc 1 393 12 is_stmt 0 view .LVU229
 706 005c 6FF00B00 		mvn	r0, #11
 707 0060 F0E7     		b	.L54
 708              	.LVL64:
 709              	.L56:
 375:../../Middlewares/Third_Party/LwIP/src/netif/slipif.c ****   }
 710              		.loc 1 375 12 view .LVU230
 711 0062 4FF0FF30 		mov	r0, #-1
 712              	.LVL65:
 375:../../Middlewares/Third_Party/LwIP/src/netif/slipif.c ****   }
 713              		.loc 1 375 12 view .LVU231
 714 0066 EDE7     		b	.L54
 715              	.L61:
 716              		.align	2
 717              	.L60:
 718 0068 00000000 		.word	slipif_output_v4
 719 006c 00000000 		.word	.LC0
 720 0070 00000000 		.word	.LC5
 721 0074 48000000 		.word	.LC2
 722              		.cfi_endproc
 723              	.LFE174:
 725              		.section	.text.slipif_poll,"ax",%progbits
 726              		.align	1
 727              		.global	slipif_poll
 728              		.syntax unified
 729              		.thumb
 730              		.thumb_func
 732              	slipif_poll:
 733              	.LVL66:
 734              	.LFB175:
 418:../../Middlewares/Third_Party/LwIP/src/netif/slipif.c **** 
 419:../../Middlewares/Third_Party/LwIP/src/netif/slipif.c **** /**
 420:../../Middlewares/Third_Party/LwIP/src/netif/slipif.c ****  * @ingroup slipif
 421:../../Middlewares/Third_Party/LwIP/src/netif/slipif.c ****  * Polls the serial device and feeds the IP layer with incoming packets.
 422:../../Middlewares/Third_Party/LwIP/src/netif/slipif.c ****  *
 423:../../Middlewares/Third_Party/LwIP/src/netif/slipif.c ****  * @param netif The lwip network interface structure for this slipif
 424:../../Middlewares/Third_Party/LwIP/src/netif/slipif.c ****  */
 425:../../Middlewares/Third_Party/LwIP/src/netif/slipif.c **** void
 426:../../Middlewares/Third_Party/LwIP/src/netif/slipif.c **** slipif_poll(struct netif *netif)
 427:../../Middlewares/Third_Party/LwIP/src/netif/slipif.c **** {
 735              		.loc 1 427 1 is_stmt 1 view -0
 736              		.cfi_startproc
 737              		@ args = 0, pretend = 0, frame = 8
 738              		@ frame_needed = 0, uses_anonymous_args = 0
 739              		.loc 1 427 1 is_stmt 0 view .LVU233
ARM GAS  /tmp/ccB1qwLo.s 			page 23


 740 0000 30B5     		push	{r4, r5, lr}
 741              	.LCFI5:
 742              		.cfi_def_cfa_offset 12
 743              		.cfi_offset 4, -12
 744              		.cfi_offset 5, -8
 745              		.cfi_offset 14, -4
 746 0002 83B0     		sub	sp, sp, #12
 747              	.LCFI6:
 748              		.cfi_def_cfa_offset 24
 428:../../Middlewares/Third_Party/LwIP/src/netif/slipif.c ****   u8_t c;
 749              		.loc 1 428 3 is_stmt 1 view .LVU234
 429:../../Middlewares/Third_Party/LwIP/src/netif/slipif.c ****   struct slipif_priv *priv;
 750              		.loc 1 429 3 view .LVU235
 430:../../Middlewares/Third_Party/LwIP/src/netif/slipif.c **** 
 431:../../Middlewares/Third_Party/LwIP/src/netif/slipif.c ****   LWIP_ASSERT("netif != NULL", (netif != NULL));
 751              		.loc 1 431 3 view .LVU236
 752              		.loc 1 431 3 view .LVU237
 753 0004 0446     		mov	r4, r0
 754 0006 18B1     		cbz	r0, .L68
 755              	.LVL67:
 756              	.L63:
 757              		.loc 1 431 3 discriminator 3 view .LVU238
 758              		.loc 1 431 3 discriminator 3 view .LVU239
 432:../../Middlewares/Third_Party/LwIP/src/netif/slipif.c ****   LWIP_ASSERT("netif->state != NULL", (netif->state != NULL));
 759              		.loc 1 432 3 view .LVU240
 760              		.loc 1 432 3 view .LVU241
 761 0008 236A     		ldr	r3, [r4, #32]
 762 000a 4BB1     		cbz	r3, .L69
 763              	.L64:
 764              		.loc 1 432 3 discriminator 3 view .LVU242
 765              		.loc 1 432 3 discriminator 3 view .LVU243
 433:../../Middlewares/Third_Party/LwIP/src/netif/slipif.c **** 
 434:../../Middlewares/Third_Party/LwIP/src/netif/slipif.c ****   priv = (struct slipif_priv *)netif->state;
 766              		.loc 1 434 3 view .LVU244
 767              		.loc 1 434 8 is_stmt 0 view .LVU245
 768 000c 256A     		ldr	r5, [r4, #32]
 769              	.LVL68:
 435:../../Middlewares/Third_Party/LwIP/src/netif/slipif.c **** 
 436:../../Middlewares/Third_Party/LwIP/src/netif/slipif.c ****   while (sio_tryread(priv->sd, &c, 1) > 0) {
 770              		.loc 1 436 3 is_stmt 1 view .LVU246
 771              		.loc 1 436 9 is_stmt 0 view .LVU247
 772 000e 14E0     		b	.L65
 773              	.LVL69:
 774              	.L68:
 431:../../Middlewares/Third_Party/LwIP/src/netif/slipif.c ****   LWIP_ASSERT("netif->state != NULL", (netif->state != NULL));
 775              		.loc 1 431 3 is_stmt 1 discriminator 1 view .LVU248
 431:../../Middlewares/Third_Party/LwIP/src/netif/slipif.c ****   LWIP_ASSERT("netif->state != NULL", (netif->state != NULL));
 776              		.loc 1 431 3 discriminator 1 view .LVU249
 777 0010 0F4B     		ldr	r3, .L70
 778 0012 40F2AF12 		movw	r2, #431
 779 0016 0F49     		ldr	r1, .L70+4
 780 0018 0F48     		ldr	r0, .L70+8
 781              	.LVL70:
 431:../../Middlewares/Third_Party/LwIP/src/netif/slipif.c ****   LWIP_ASSERT("netif->state != NULL", (netif->state != NULL));
 782              		.loc 1 431 3 is_stmt 0 discriminator 1 view .LVU250
 783 001a FFF7FEFF 		bl	printf
 784              	.LVL71:
ARM GAS  /tmp/ccB1qwLo.s 			page 24


 785 001e F3E7     		b	.L63
 786              	.L69:
 432:../../Middlewares/Third_Party/LwIP/src/netif/slipif.c **** 
 787              		.loc 1 432 3 is_stmt 1 discriminator 1 view .LVU251
 432:../../Middlewares/Third_Party/LwIP/src/netif/slipif.c **** 
 788              		.loc 1 432 3 discriminator 1 view .LVU252
 789 0020 0B4B     		ldr	r3, .L70
 790 0022 4FF4D872 		mov	r2, #432
 791 0026 0D49     		ldr	r1, .L70+12
 792 0028 0B48     		ldr	r0, .L70+8
 793 002a FFF7FEFF 		bl	printf
 794              	.LVL72:
 795 002e EDE7     		b	.L64
 796              	.LVL73:
 797              	.L66:
 437:../../Middlewares/Third_Party/LwIP/src/netif/slipif.c ****     slipif_rxbyte_input(netif, c);
 798              		.loc 1 437 5 view .LVU253
 799 0030 9DF80710 		ldrb	r1, [sp, #7]	@ zero_extendqisi2
 800 0034 2046     		mov	r0, r4
 801 0036 FFF7FEFF 		bl	slipif_rxbyte_input
 802              	.LVL74:
 803              	.L65:
 436:../../Middlewares/Third_Party/LwIP/src/netif/slipif.c ****     slipif_rxbyte_input(netif, c);
 804              		.loc 1 436 39 view .LVU254
 436:../../Middlewares/Third_Party/LwIP/src/netif/slipif.c ****     slipif_rxbyte_input(netif, c);
 805              		.loc 1 436 10 is_stmt 0 view .LVU255
 806 003a 0122     		movs	r2, #1
 807 003c 0DF10701 		add	r1, sp, #7
 808 0040 2868     		ldr	r0, [r5]
 809 0042 FFF7FEFF 		bl	sio_tryread
 810              	.LVL75:
 436:../../Middlewares/Third_Party/LwIP/src/netif/slipif.c ****     slipif_rxbyte_input(netif, c);
 811              		.loc 1 436 39 discriminator 1 view .LVU256
 812 0046 0028     		cmp	r0, #0
 813 0048 F2D1     		bne	.L66
 438:../../Middlewares/Third_Party/LwIP/src/netif/slipif.c ****   }
 439:../../Middlewares/Third_Party/LwIP/src/netif/slipif.c **** }
 814              		.loc 1 439 1 view .LVU257
 815 004a 03B0     		add	sp, sp, #12
 816              	.LCFI7:
 817              		.cfi_def_cfa_offset 12
 818              		@ sp needed
 819 004c 30BD     		pop	{r4, r5, pc}
 820              	.LVL76:
 821              	.L71:
 822              		.loc 1 439 1 view .LVU258
 823 004e 00BF     		.align	2
 824              	.L70:
 825 0050 00000000 		.word	.LC0
 826 0054 38000000 		.word	.LC1
 827 0058 48000000 		.word	.LC2
 828 005c 70000000 		.word	.LC3
 829              		.cfi_endproc
 830              	.LFE175:
 832              		.text
 833              	.Letext0:
 834              		.file 2 "/usr/arm-none-eabi/include/machine/_default_types.h"
ARM GAS  /tmp/ccB1qwLo.s 			page 25


 835              		.file 3 "/usr/arm-none-eabi/include/sys/_stdint.h"
 836              		.file 4 "/usr/lib/gcc/arm-none-eabi/14.1.0/include/stddef.h"
 837              		.file 5 "../../Middlewares/Third_Party/LwIP/src/include/lwip/arch.h"
 838              		.file 6 "../../Middlewares/Third_Party/LwIP/src/include/lwip/err.h"
 839              		.file 7 "../../Middlewares/Third_Party/LwIP/src/include/lwip/ip4_addr.h"
 840              		.file 8 "../../Middlewares/Third_Party/LwIP/src/include/lwip/ip_addr.h"
 841              		.file 9 "../../Middlewares/Third_Party/LwIP/src/include/lwip/pbuf.h"
 842              		.file 10 "../../Middlewares/Third_Party/LwIP/src/include/lwip/mem.h"
 843              		.file 11 "../../Middlewares/Third_Party/LwIP/src/include/lwip/netif.h"
 844              		.file 12 "../../Middlewares/Third_Party/LwIP/src/include/lwip/sio.h"
 845              		.file 13 "/usr/arm-none-eabi/include/stdio.h"
ARM GAS  /tmp/ccB1qwLo.s 			page 26

